---
triple:          'arm64-apple-darwin'
binary-path:     '/Users/aminesaddiki/cppHeaderTest/hotel'
relocations:
  - { offsetInCU: 0x5C, offset: 0x5C, size: 0x8, addend: 0x0, symName: __ZNSt3__18in_placeE, symObjAddr: 0xBF51, symBinAddr: 0x10000F755, symSize: 0x0 }
  - { offsetInCU: 0x8D, offset: 0x8D, size: 0x8, addend: 0x0, symName: __ZNSt3__17nulloptE, symObjAddr: 0xBF50, symBinAddr: 0x10000F754, symSize: 0x0 }
  - { offsetInCU: 0xA9AB, offset: 0xA9AB, size: 0x8, addend: 0x0, symName: __ZNSt3__124__put_character_sequenceB8ue170006IcNS_11char_traitsIcEEEERNS_13basic_ostreamIT_T0_EES7_PKS4_m, symObjAddr: 0x8F64, symBinAddr: 0x10000C378, symSize: 0x1EC }
  - { offsetInCU: 0xD8D4, offset: 0xD8D4, size: 0x8, addend: 0x0, symName: __ZNSt3__112__to_addressB8ue170006I4roomEEPT_S3_, symObjAddr: 0x1564, symBinAddr: 0x100004978, symSize: 0x14 }
  - { offsetInCU: 0xD909, offset: 0xD909, size: 0x8, addend: 0x0, symName: __ZNSt3__13maxB8ue170006ImEERKT_S3_S3_, symObjAddr: 0x1A18, symBinAddr: 0x100004E2C, symSize: 0x2C }
  - { offsetInCU: 0xD94C, offset: 0xD94C, size: 0x8, addend: 0x0, symName: __ZNSt3__13minB8ue170006ImEERKT_S3_S3_, symObjAddr: 0x1A44, symBinAddr: 0x100004E58, symSize: 0x2C }
  - { offsetInCU: 0xDB79, offset: 0xDB79, size: 0x8, addend: 0x0, symName: __ZNSt3__13minB8ue170006ImNS_6__lessIvvEEEERKT_S5_S5_T0_, symObjAddr: 0x1AD0, symBinAddr: 0x100004EE4, symSize: 0x54 }
  - { offsetInCU: 0xDC18, offset: 0xDC18, size: 0x8, addend: 0x0, symName: __ZNSt3__120__throw_length_errorB8ue170006EPKc, symObjAddr: 0x1BB0, symBinAddr: 0x100004FC4, symSize: 0x64 }
  - { offsetInCU: 0xDC42, offset: 0xDC42, size: 0x8, addend: 0x0, symName: __ZNSt3__13maxB8ue170006ImNS_6__lessIvvEEEERKT_S5_S5_T0_, symObjAddr: 0x1CF4, symBinAddr: 0x100005108, symSize: 0x54 }
  - { offsetInCU: 0xDC9C, offset: 0xDC9C, size: 0x8, addend: 0x0, symName: __ZNSt3__119__allocate_at_leastB8ue170006INS_9allocatorI4roomEEEENS_19__allocation_resultINS_16allocator_traitsIT_E7pointerEEERS6_m, symObjAddr: 0x1E64, symBinAddr: 0x100005278, symSize: 0x40 }
  - { offsetInCU: 0xDCDF, offset: 0xDCDF, size: 0x8, addend: 0x0, symName: __ZNSt3__117__libcpp_allocateB8ue170006Emm, symObjAddr: 0x1FEC, symBinAddr: 0x100005400, symSize: 0x60 }
  - { offsetInCU: 0xDD39, offset: 0xDD39, size: 0x8, addend: 0x0, symName: __ZNSt3__124__is_overaligned_for_newB8ue170006Em, symObjAddr: 0x204C, symBinAddr: 0x100005460, symSize: 0x20 }
  - { offsetInCU: 0xDD67, offset: 0xDD67, size: 0x8, addend: 0x0, symName: __ZNSt3__121__libcpp_operator_newB8ue170006IJmSt11align_val_tEEEPvDpT_, symObjAddr: 0x206C, symBinAddr: 0x100005480, symSize: 0x2C }
  - { offsetInCU: 0xDDB4, offset: 0xDDB4, size: 0x8, addend: 0x0, symName: __ZNSt3__121__libcpp_operator_newB8ue170006IJmEEEPvDpT_, symObjAddr: 0x2098, symBinAddr: 0x1000054AC, symSize: 0x24 }
  - { offsetInCU: 0xDDED, offset: 0xDDED, size: 0x8, addend: 0x0, symName: __ZNSt3__142__uninitialized_allocator_move_if_noexceptB8ue170006INS_9allocatorI4roomEENS_16reverse_iteratorIPS2_EES6_S6_EET2_RT_T0_T1_S7_, symObjAddr: 0x21F4, symBinAddr: 0x100005608, symSize: 0x12C }
  - { offsetInCU: 0xDE8D, offset: 0xDE8D, size: 0x8, addend: 0x0, symName: __ZNSt3__14swapB8ue170006IP4roomEENS_9enable_ifIXaasr21is_move_constructibleIT_EE5valuesr18is_move_assignableIS4_EE5valueEvE4typeERS4_S7_, symObjAddr: 0x236C, symBinAddr: 0x100005780, symSize: 0x3C }
  - { offsetInCU: 0xDEDE, offset: 0xDEDE, size: 0x8, addend: 0x0, symName: __ZNSt3__122__make_exception_guardB8ue170006INS_29_AllocatorDestroyRangeReverseINS_9allocatorI4roomEENS_16reverse_iteratorIPS3_EEEEEENS_28__exception_guard_exceptionsIT_EESA_, symObjAddr: 0x24B8, symBinAddr: 0x1000058CC, symSize: 0x4C }
  - { offsetInCU: 0xDF14, offset: 0xDF14, size: 0x8, addend: 0x0, symName: __ZNSt3__1neB8ue170006IP4roomS2_EEbRKNS_16reverse_iteratorIT_EERKNS3_IT0_EE, symObjAddr: 0x2548, symBinAddr: 0x10000595C, symSize: 0x48 }
  - { offsetInCU: 0xDF60, offset: 0xDF60, size: 0x8, addend: 0x0, symName: __ZNSt3__112__to_addressB8ue170006INS_16reverse_iteratorIP4roomEEvEEu7__decayIDTclsr19__to_address_helperIT_EE6__callclsr3stdE7declvalIRKS5_EEEEES7_, symObjAddr: 0x25C4, symBinAddr: 0x1000059D8, symSize: 0x24 }
  - { offsetInCU: 0xDFBF, offset: 0xDFBF, size: 0x8, addend: 0x0, symName: __ZNSt3__119__allocator_destroyB8ue170006INS_9allocatorI4roomEENS_16reverse_iteratorINS4_IPS2_EEEES7_EEvRT_T0_T1_, symObjAddr: 0x2A28, symBinAddr: 0x100005E3C, symSize: 0x70 }
  - { offsetInCU: 0xE024, offset: 0xE024, size: 0x8, addend: 0x0, symName: __ZNSt3__1neB8ue170006INS_16reverse_iteratorIP4roomEES4_EEbRKNS1_IT_EERKNS1_IT0_EE, symObjAddr: 0x2AD4, symBinAddr: 0x100005EE8, symSize: 0x60 }
  - { offsetInCU: 0xE070, offset: 0xE070, size: 0x8, addend: 0x0, symName: __ZNSt3__112__to_addressB8ue170006INS_16reverse_iteratorINS1_IP4roomEEEEvEEu7__decayIDTclsr19__to_address_helperIT_EE6__callclsr3stdE7declvalIRKS6_EEEEES8_, symObjAddr: 0x2B60, symBinAddr: 0x100005F74, symSize: 0x24 }
  - { offsetInCU: 0xE0CF, offset: 0xE0CF, size: 0x8, addend: 0x0, symName: __ZNSt3__119__libcpp_deallocateB8ue170006EPvmm, symObjAddr: 0x2F1C, symBinAddr: 0x100006330, symSize: 0x60 }
  - { offsetInCU: 0xE134, offset: 0xE134, size: 0x8, addend: 0x0, symName: __ZNSt3__127__do_deallocate_handle_sizeB8ue170006IJSt11align_val_tEEEvPvmDpT_, symObjAddr: 0x2F7C, symBinAddr: 0x100006390, symSize: 0x30 }
  - { offsetInCU: 0xE187, offset: 0xE187, size: 0x8, addend: 0x0, symName: __ZNSt3__127__do_deallocate_handle_sizeB8ue170006IJEEEvPvmDpT_, symObjAddr: 0x2FAC, symBinAddr: 0x1000063C0, symSize: 0x28 }
  - { offsetInCU: 0xE1C5, offset: 0xE1C5, size: 0x8, addend: 0x0, symName: __ZNSt3__124__libcpp_operator_deleteB8ue170006IJPvSt11align_val_tEEEvDpT_, symObjAddr: 0x2FD4, symBinAddr: 0x1000063E8, symSize: 0x2C }
  - { offsetInCU: 0xE20E, offset: 0xE20E, size: 0x8, addend: 0x0, symName: __ZNSt3__124__libcpp_operator_deleteB8ue170006IJPvEEEvDpT_, symObjAddr: 0x3000, symBinAddr: 0x100006414, symSize: 0x24 }
  - { offsetInCU: 0xE243, offset: 0xE243, size: 0x8, addend: 0x0, symName: __ZNSt3__112__to_addressB8ue170006I8customerEEPT_S3_, symObjAddr: 0x35F4, symBinAddr: 0x100006A08, symSize: 0x14 }
  - { offsetInCU: 0xE278, offset: 0xE278, size: 0x8, addend: 0x0, symName: __ZNSt3__122__make_exception_guardB8ue170006INS_6vectorIiNS_9allocatorIiEEE16__destroy_vectorEEENS_28__exception_guard_exceptionsIT_EES7_, symObjAddr: 0x3A54, symBinAddr: 0x100006E68, symSize: 0x40 }
  - { offsetInCU: 0xE2AD, offset: 0xE2AD, size: 0x8, addend: 0x0, symName: __ZNSt3__119__allocate_at_leastB8ue170006INS_9allocatorIiEEEENS_19__allocation_resultINS_16allocator_traitsIT_E7pointerEEERS5_m, symObjAddr: 0x3D3C, symBinAddr: 0x100007150, symSize: 0x40 }
  - { offsetInCU: 0xE2F0, offset: 0xE2F0, size: 0x8, addend: 0x0, symName: __ZNSt3__112__to_addressB8ue170006IiEEPT_S2_, symObjAddr: 0x4000, symBinAddr: 0x100007414, symSize: 0x14 }
  - { offsetInCU: 0xE325, offset: 0xE325, size: 0x8, addend: 0x0, symName: __ZNSt3__130__uninitialized_allocator_copyB8ue170006INS_9allocatorIiEEPiS3_S3_EET2_RT_T0_T1_S4_, symObjAddr: 0x40B0, symBinAddr: 0x1000074C4, symSize: 0x80 }
  - { offsetInCU: 0xE3C2, offset: 0xE3C2, size: 0x8, addend: 0x0, symName: __ZNSt3__114__unwrap_rangeB8ue170006IPiS1_EENS_4pairIT0_S3_EET_S5_, symObjAddr: 0x41A0, symBinAddr: 0x1000075B4, symSize: 0x60 }
  - { offsetInCU: 0xE40E, offset: 0xE40E, size: 0x8, addend: 0x0, symName: __ZNSt3__135__uninitialized_allocator_copy_implB8ue170006INS_9allocatorIiEEiiiLPv0EEEPT2_RT_PT0_S9_S5_, symObjAddr: 0x4200, symBinAddr: 0x100007614, symSize: 0x38 }
  - { offsetInCU: 0xE48F, offset: 0xE48F, size: 0x8, addend: 0x0, symName: __ZNSt3__113__unwrap_iterB8ue170006IPiNS_18__unwrap_iter_implIS1_Lb1EEELi0EEEDTclsrT0_8__unwrapclsr3stdE7declvalIT_EEEES5_, symObjAddr: 0x4238, symBinAddr: 0x10000764C, symSize: 0x24 }
  - { offsetInCU: 0xE4D3, offset: 0xE4D3, size: 0x8, addend: 0x0, symName: __ZNSt3__113__rewrap_iterB8ue170006IPiS1_NS_18__unwrap_iter_implIS1_Lb1EEEEET_S4_T0_, symObjAddr: 0x425C, symBinAddr: 0x100007670, symSize: 0x3C }
  - { offsetInCU: 0xE528, offset: 0xE528, size: 0x8, addend: 0x0, symName: __ZNSt3__19make_pairB8ue170006IPiS1_EENS_4pairINS_18__unwrap_ref_decayIT_E4typeENS3_IT0_E4typeEEEOS4_OS7_, symObjAddr: 0x4298, symBinAddr: 0x1000076AC, symSize: 0x38 }
  - { offsetInCU: 0xE67A, offset: 0xE67A, size: 0x8, addend: 0x0, symName: __ZNSt3__14copyB8ue170006IPiS1_EET0_T_S3_S2_, symObjAddr: 0x4340, symBinAddr: 0x100007754, symSize: 0x40 }
  - { offsetInCU: 0xE6D4, offset: 0xE6D4, size: 0x8, addend: 0x0, symName: __ZNSt3__16__copyB8ue170006INS_17_ClassicAlgPolicyEPiS2_S2_EENS_4pairIT0_T2_EES4_T1_S5_, symObjAddr: 0x4380, symBinAddr: 0x100007794, symSize: 0x44 }
  - { offsetInCU: 0xE740, offset: 0xE740, size: 0x8, addend: 0x0, symName: __ZNSt3__123__dispatch_copy_or_moveB8ue170006INS_17_ClassicAlgPolicyENS_11__copy_loopIS1_EENS_14__copy_trivialEPiS5_S5_EENS_4pairIT2_T4_EES7_T3_S8_, symObjAddr: 0x43C4, symBinAddr: 0x1000077D8, symSize: 0x44 }
  - { offsetInCU: 0xE7BE, offset: 0xE7BE, size: 0x8, addend: 0x0, symName: __ZNSt3__121__unwrap_and_dispatchB8ue170006INS_10__overloadINS_11__copy_loopINS_17_ClassicAlgPolicyEEENS_14__copy_trivialEEEPiS7_S7_Li0EEENS_4pairIT0_T2_EES9_T1_SA_, symObjAddr: 0x4408, symBinAddr: 0x10000781C, symSize: 0xB4 }
  - { offsetInCU: 0xE892, offset: 0xE892, size: 0x8, addend: 0x0, symName: __ZNSt3__114__rewrap_rangeB8ue170006IPiS1_EET_S2_T0_, symObjAddr: 0x4504, symBinAddr: 0x100007918, symSize: 0x2C }
  - { offsetInCU: 0xE8DE, offset: 0xE8DE, size: 0x8, addend: 0x0, symName: __ZNSt3__119__copy_trivial_implB8ue170006IiiEENS_4pairIPT_PT0_EES3_S3_S5_, symObjAddr: 0x4530, symBinAddr: 0x100007944, symSize: 0x80 }
  - { offsetInCU: 0xE946, offset: 0xE946, size: 0x8, addend: 0x0, symName: __ZNSt3__119__constexpr_memmoveB8ue170006IiiLi0EEEPT_S2_PT0_NS_15__element_countE, symObjAddr: 0x45B0, symBinAddr: 0x1000079C4, symSize: 0x64 }
  - { offsetInCU: 0xE9B4, offset: 0xE9B4, size: 0x8, addend: 0x0, symName: __ZNSt3__19make_pairB8ue170006IRPiS1_EENS_4pairINS_18__unwrap_ref_decayIT_E4typeENS4_IT0_E4typeEEEOS5_OS8_, symObjAddr: 0x4614, symBinAddr: 0x100007A28, symSize: 0x38 }
  - { offsetInCU: 0xEA56, offset: 0xEA56, size: 0x8, addend: 0x0, symName: __ZNSt3__119__allocate_at_leastB8ue170006INS_9allocatorI8customerEEEENS_19__allocation_resultINS_16allocator_traitsIT_E7pointerEEERS6_m, symObjAddr: 0x4FD8, symBinAddr: 0x1000083EC, symSize: 0x40 }
  - { offsetInCU: 0xEA99, offset: 0xEA99, size: 0x8, addend: 0x0, symName: __ZNSt3__142__uninitialized_allocator_move_if_noexceptB8ue170006INS_9allocatorI8customerEENS_16reverse_iteratorIPS2_EES6_S6_EET2_RT_T0_T1_S7_, symObjAddr: 0x5264, symBinAddr: 0x100008678, symSize: 0x12C }
  - { offsetInCU: 0xEB39, offset: 0xEB39, size: 0x8, addend: 0x0, symName: __ZNSt3__14swapB8ue170006IP8customerEENS_9enable_ifIXaasr21is_move_constructibleIT_EE5valuesr18is_move_assignableIS4_EE5valueEvE4typeERS4_S7_, symObjAddr: 0x53DC, symBinAddr: 0x1000087F0, symSize: 0x3C }
  - { offsetInCU: 0xEB8A, offset: 0xEB8A, size: 0x8, addend: 0x0, symName: __ZNSt3__122__make_exception_guardB8ue170006INS_29_AllocatorDestroyRangeReverseINS_9allocatorI8customerEENS_16reverse_iteratorIPS3_EEEEEENS_28__exception_guard_exceptionsIT_EESA_, symObjAddr: 0x5528, symBinAddr: 0x10000893C, symSize: 0x4C }
  - { offsetInCU: 0xEBC0, offset: 0xEBC0, size: 0x8, addend: 0x0, symName: __ZNSt3__1neB8ue170006IP8customerS2_EEbRKNS_16reverse_iteratorIT_EERKNS3_IT0_EE, symObjAddr: 0x55B8, symBinAddr: 0x1000089CC, symSize: 0x48 }
  - { offsetInCU: 0xEC0C, offset: 0xEC0C, size: 0x8, addend: 0x0, symName: __ZNSt3__112__to_addressB8ue170006INS_16reverse_iteratorIP8customerEEvEEu7__decayIDTclsr19__to_address_helperIT_EE6__callclsr3stdE7declvalIRKS5_EEEEES7_, symObjAddr: 0x5634, symBinAddr: 0x100008A48, symSize: 0x24 }
  - { offsetInCU: 0xEC6B, offset: 0xEC6B, size: 0x8, addend: 0x0, symName: __ZNSt3__119__allocator_destroyB8ue170006INS_9allocatorI8customerEENS_16reverse_iteratorINS4_IPS2_EEEES7_EEvRT_T0_T1_, symObjAddr: 0x5AB0, symBinAddr: 0x100008EC4, symSize: 0x70 }
  - { offsetInCU: 0xECD0, offset: 0xECD0, size: 0x8, addend: 0x0, symName: __ZNSt3__1neB8ue170006INS_16reverse_iteratorIP8customerEES4_EEbRKNS1_IT_EERKNS1_IT0_EE, symObjAddr: 0x5B5C, symBinAddr: 0x100008F70, symSize: 0x60 }
  - { offsetInCU: 0xED1C, offset: 0xED1C, size: 0x8, addend: 0x0, symName: __ZNSt3__112__to_addressB8ue170006INS_16reverse_iteratorINS1_IP8customerEEEEvEEu7__decayIDTclsr19__to_address_helperIT_EE6__callclsr3stdE7declvalIRKS6_EEEEES8_, symObjAddr: 0x5BE8, symBinAddr: 0x100008FFC, symSize: 0x24 }
  - { offsetInCU: 0xED7B, offset: 0xED7B, size: 0x8, addend: 0x0, symName: __ZNSt3__1neB8ue170006IP4roomEEbRKNS_11__wrap_iterIT_EES7_, symObjAddr: 0x6104, symBinAddr: 0x100009518, symSize: 0x34 }
  - { offsetInCU: 0xEDBE, offset: 0xEDBE, size: 0x8, addend: 0x0, symName: __ZNSt3__1neB8ue170006IP8customerEEbRKNS_11__wrap_iterIT_EES7_, symObjAddr: 0x61E4, symBinAddr: 0x1000095F8, symSize: 0x34 }
  - { offsetInCU: 0xEE01, offset: 0xEE01, size: 0x8, addend: 0x0, symName: __ZNSt3__1lsB8ue170006INS_11char_traitsIcEEEERNS_13basic_ostreamIcT_EES6_PKc, symObjAddr: 0x639C, symBinAddr: 0x1000097B0, symSize: 0x48 }
  - { offsetInCU: 0xEE47, offset: 0xEE47, size: 0x8, addend: 0x0, symName: __ZNSt3__14endlB8ue170006IcNS_11char_traitsIcEEEERNS_13basic_ostreamIT_T0_EES7_, symObjAddr: 0x6410, symBinAddr: 0x100009824, symSize: 0x58 }
  - { offsetInCU: 0xEE87, offset: 0xEE87, size: 0x8, addend: 0x0, symName: __ZNSt3__1eqB8ue170006IP4roomEEbRKNS_11__wrap_iterIT_EES7_, symObjAddr: 0x6558, symBinAddr: 0x10000996C, symSize: 0x48 }
  - { offsetInCU: 0xEECA, offset: 0xEECA, size: 0x8, addend: 0x0, symName: __ZNSt3__1eqB8ue170006IP8customerEEbRKNS_11__wrap_iterIT_EES7_, symObjAddr: 0x663C, symBinAddr: 0x100009A50, symSize: 0x48 }
  - { offsetInCU: 0xEF0D, offset: 0xEF0D, size: 0x8, addend: 0x0, symName: __ZNSt3__142__uninitialized_allocator_move_if_noexceptB8ue170006INS_9allocatorIiEENS_16reverse_iteratorIPiEES5_ivEET1_RT_T0_S9_S6_, symObjAddr: 0x6D2C, symBinAddr: 0x10000A140, symSize: 0x78 }
  - { offsetInCU: 0xEF8A, offset: 0xEF8A, size: 0x8, addend: 0x0, symName: __ZNSt3__14swapB8ue170006IPiEENS_9enable_ifIXaasr21is_move_constructibleIT_EE5valuesr18is_move_assignableIS3_EE5valueEvE4typeERS3_S6_, symObjAddr: 0x6DF0, symBinAddr: 0x10000A204, symSize: 0x3C }
  - { offsetInCU: 0xEFDB, offset: 0xEFDB, size: 0x8, addend: 0x0, symName: __ZNSt3__14moveB8ue170006INS_16reverse_iteratorIPiEES3_EET0_T_S5_S4_, symObjAddr: 0x6E2C, symBinAddr: 0x10000A240, symSize: 0x78 }
  - { offsetInCU: 0xF035, offset: 0xF035, size: 0x8, addend: 0x0, symName: __ZNSt3__16__moveB8ue170006INS_17_ClassicAlgPolicyENS_16reverse_iteratorIPiEES4_S4_EENS_4pairIT0_T2_EES6_T1_S7_, symObjAddr: 0x6EA4, symBinAddr: 0x10000A2B8, symSize: 0x64 }
  - { offsetInCU: 0xF0A1, offset: 0xF0A1, size: 0x8, addend: 0x0, symName: __ZNSt3__123__dispatch_copy_or_moveB8ue170006INS_17_ClassicAlgPolicyENS_11__move_loopIS1_EENS_14__move_trivialENS_16reverse_iteratorIPiEES7_S7_EENS_4pairIT2_T4_EES9_T3_SA_, symObjAddr: 0x6F08, symBinAddr: 0x10000A31C, symSize: 0x64 }
  - { offsetInCU: 0xF11F, offset: 0xF11F, size: 0x8, addend: 0x0, symName: __ZNSt3__121__unwrap_and_dispatchB8ue170006INS_10__overloadINS_11__move_loopINS_17_ClassicAlgPolicyEEENS_14__move_trivialEEENS_16reverse_iteratorIPiEES9_S9_Li0EEENS_4pairIT0_T2_EESB_T1_SC_, symObjAddr: 0x6F6C, symBinAddr: 0x10000A380, symSize: 0x12C }
  - { offsetInCU: 0xF1AF, offset: 0xF1AF, size: 0x8, addend: 0x0, symName: __ZNSt3__114__unwrap_rangeB8ue170006INS_16reverse_iteratorIPiEES3_EENS_4pairIT0_S5_EET_S7_, symObjAddr: 0x7098, symBinAddr: 0x10000A4AC, symSize: 0x84 }
  - { offsetInCU: 0xF32A, offset: 0xF32A, size: 0x8, addend: 0x0, symName: __ZNSt3__113__unwrap_iterB8ue170006INS_16reverse_iteratorIPiEENS_18__unwrap_iter_implIS3_Lb0EEELi0EEEDTclsrT0_8__unwrapclsr3stdE7declvalIT_EEEES7_, symObjAddr: 0x71BC, symBinAddr: 0x10000A5D0, symSize: 0x44 }
  - { offsetInCU: 0xF36E, offset: 0xF36E, size: 0x8, addend: 0x0, symName: __ZNSt3__19make_pairB8ue170006INS_16reverse_iteratorIPiEES3_EENS_4pairINS_18__unwrap_ref_decayIT_E4typeENS5_IT0_E4typeEEEOS6_OS9_, symObjAddr: 0x7200, symBinAddr: 0x10000A614, symSize: 0x38 }
  - { offsetInCU: 0xF3BD, offset: 0xF3BD, size: 0x8, addend: 0x0, symName: __ZNSt3__114__rewrap_rangeB8ue170006INS_16reverse_iteratorIPiEES3_EET_S4_T0_, symObjAddr: 0x7238, symBinAddr: 0x10000A64C, symSize: 0x5C }
  - { offsetInCU: 0xF409, offset: 0xF409, size: 0x8, addend: 0x0, symName: __ZNSt3__113__rewrap_iterB8ue170006INS_16reverse_iteratorIPiEES3_NS_18__unwrap_iter_implIS3_Lb0EEEEET_S6_T0_, symObjAddr: 0x7294, symBinAddr: 0x10000A6A8, symSize: 0x74 }
  - { offsetInCU: 0xF45E, offset: 0xF45E, size: 0x8, addend: 0x0, symName: __ZNSt3__1neB8ue170006IPiS1_EEbRKNS_16reverse_iteratorIT_EERKNS2_IT0_EE, symObjAddr: 0x7308, symBinAddr: 0x10000A71C, symSize: 0x48 }
  - { offsetInCU: 0xF55C, offset: 0xF55C, size: 0x8, addend: 0x0, symName: __ZNSt3__112__to_addressB8ue170006I7bookingEEPT_S3_, symObjAddr: 0x79A0, symBinAddr: 0x10000ADB4, symSize: 0x14 }
  - { offsetInCU: 0xF591, offset: 0xF591, size: 0x8, addend: 0x0, symName: __ZNSt3__119__allocate_at_leastB8ue170006INS_9allocatorI7bookingEEEENS_19__allocation_resultINS_16allocator_traitsIT_E7pointerEEERS6_m, symObjAddr: 0x8090, symBinAddr: 0x10000B4A4, symSize: 0x40 }
  - { offsetInCU: 0xF5D4, offset: 0xF5D4, size: 0x8, addend: 0x0, symName: __ZNSt3__142__uninitialized_allocator_move_if_noexceptB8ue170006INS_9allocatorI7bookingEENS_16reverse_iteratorIPS2_EES6_S6_EET2_RT_T0_T1_S7_, symObjAddr: 0x82FC, symBinAddr: 0x10000B710, symSize: 0x12C }
  - { offsetInCU: 0xF674, offset: 0xF674, size: 0x8, addend: 0x0, symName: __ZNSt3__14swapB8ue170006IP7bookingEENS_9enable_ifIXaasr21is_move_constructibleIT_EE5valuesr18is_move_assignableIS4_EE5valueEvE4typeERS4_S7_, symObjAddr: 0x8474, symBinAddr: 0x10000B888, symSize: 0x3C }
  - { offsetInCU: 0xF6C5, offset: 0xF6C5, size: 0x8, addend: 0x0, symName: __ZNSt3__122__make_exception_guardB8ue170006INS_29_AllocatorDestroyRangeReverseINS_9allocatorI7bookingEENS_16reverse_iteratorIPS3_EEEEEENS_28__exception_guard_exceptionsIT_EESA_, symObjAddr: 0x85A4, symBinAddr: 0x10000B9B8, symSize: 0x4C }
  - { offsetInCU: 0xF6FB, offset: 0xF6FB, size: 0x8, addend: 0x0, symName: __ZNSt3__1neB8ue170006IP7bookingS2_EEbRKNS_16reverse_iteratorIT_EERKNS3_IT0_EE, symObjAddr: 0x8634, symBinAddr: 0x10000BA48, symSize: 0x48 }
  - { offsetInCU: 0xF747, offset: 0xF747, size: 0x8, addend: 0x0, symName: __ZNSt3__112__to_addressB8ue170006INS_16reverse_iteratorIP7bookingEEvEEu7__decayIDTclsr19__to_address_helperIT_EE6__callclsr3stdE7declvalIRKS5_EEEEES7_, symObjAddr: 0x86B0, symBinAddr: 0x10000BAC4, symSize: 0x24 }
  - { offsetInCU: 0xF7A6, offset: 0xF7A6, size: 0x8, addend: 0x0, symName: __ZNSt3__119__allocator_destroyB8ue170006INS_9allocatorI7bookingEENS_16reverse_iteratorINS4_IPS2_EEEES7_EEvRT_T0_T1_, symObjAddr: 0x8A28, symBinAddr: 0x10000BE3C, symSize: 0x70 }
  - { offsetInCU: 0xF80B, offset: 0xF80B, size: 0x8, addend: 0x0, symName: __ZNSt3__1neB8ue170006INS_16reverse_iteratorIP7bookingEES4_EEbRKNS1_IT_EERKNS1_IT0_EE, symObjAddr: 0x8AD4, symBinAddr: 0x10000BEE8, symSize: 0x60 }
  - { offsetInCU: 0xF857, offset: 0xF857, size: 0x8, addend: 0x0, symName: __ZNSt3__112__to_addressB8ue170006INS_16reverse_iteratorINS1_IP7bookingEEEEvEEu7__decayIDTclsr19__to_address_helperIT_EE6__callclsr3stdE7declvalIRKS6_EEEEES8_, symObjAddr: 0x8B60, symBinAddr: 0x10000BF74, symSize: 0x24 }
  - { offsetInCU: 0xF8B6, offset: 0xF8B6, size: 0x8, addend: 0x0, symName: __ZNSt3__116__pad_and_outputB8ue170006IcNS_11char_traitsIcEEEENS_19ostreambuf_iteratorIT_T0_EES6_PKS4_S8_S8_RNS_8ios_baseES4_, symObjAddr: 0x91A0, symBinAddr: 0x10000C5B4, symSize: 0x240 }
  - { offsetInCU: 0xF985, offset: 0xF985, size: 0x8, addend: 0x0, symName: __ZNSt3__112__to_addressB8ue170006IcEEPT_S2_, symObjAddr: 0x9708, symBinAddr: 0x10000CB1C, symSize: 0x14 }
  - { offsetInCU: 0xF9ED, offset: 0xF9ED, size: 0x8, addend: 0x0, symName: __ZNSt3__19use_facetB8ue170006INS_5ctypeIcEEEERKT_RKNS_6localeE, symObjAddr: 0x9988, symBinAddr: 0x10000CD9C, symSize: 0x2C }
  - { offsetInCU: 0xFEBA, offset: 0xFEBA, size: 0x8, addend: 0x0, symName: __ZNSt3__118__constexpr_strlenB8ue170006EPKc, symObjAddr: 0x9A20, symBinAddr: 0x10000CE34, symSize: 0x24 }
  - { offsetInCU: 0xFEE6, offset: 0xFEE6, size: 0x8, addend: 0x0, symName: __ZNSt3__1neB8ue170006IPK7bookingEEbRKNS_11__wrap_iterIT_EES8_, symObjAddr: 0x9EB0, symBinAddr: 0x10000D2C4, symSize: 0x34 }
  - { offsetInCU: 0xFF29, offset: 0xFF29, size: 0x8, addend: 0x0, symName: __ZNSt3__1eqB8ue170006IPK7bookingEEbRKNS_11__wrap_iterIT_EES8_, symObjAddr: 0xA018, symBinAddr: 0x10000D42C, symSize: 0x48 }
  - { offsetInCU: 0xFF6C, offset: 0xFF6C, size: 0x8, addend: 0x0, symName: __ZNSt3__1neB8ue170006IPK4roomEEbRKNS_11__wrap_iterIT_EES8_, symObjAddr: 0xA3A0, symBinAddr: 0x10000D7B4, symSize: 0x34 }
  - { offsetInCU: 0xFFAF, offset: 0xFFAF, size: 0x8, addend: 0x0, symName: __ZNSt3__1eqB8ue170006IPK4roomEEbRKNS_11__wrap_iterIT_EES8_, symObjAddr: 0xA4F0, symBinAddr: 0x10000D904, symSize: 0x48 }
  - { offsetInCU: 0xFFF2, offset: 0xFFF2, size: 0x8, addend: 0x0, symName: __ZNSt3__1neB8ue170006IPK8customerEEbRKNS_11__wrap_iterIT_EES8_, symObjAddr: 0xA85C, symBinAddr: 0x10000DC70, symSize: 0x34 }
  - { offsetInCU: 0x10035, offset: 0x10035, size: 0x8, addend: 0x0, symName: __ZNSt3__1eqB8ue170006IPK8customerEEbRKNS_11__wrap_iterIT_EES8_, symObjAddr: 0xA9AC, symBinAddr: 0x10000DDC0, symSize: 0x48 }
  - { offsetInCU: 0x10492, offset: 0x10492, size: 0x8, addend: 0x0, symName: __ZSt28__throw_bad_array_new_lengthB8ue170006v, symObjAddr: 0x1FB8, symBinAddr: 0x1000053CC, symSize: 0x34 }
  - { offsetInCU: 0x10A73, offset: 0x10A73, size: 0x8, addend: 0x0, symName: __ZNSt3__16vectorI4roomNS_9allocatorIS1_EEE26__swap_out_circular_bufferERNS_14__split_bufferIS1_RS3_EE, symObjAddr: 0x1820, symBinAddr: 0x100004C34, symSize: 0x110 }
  - { offsetInCU: 0x10F47, offset: 0x10F47, size: 0x8, addend: 0x0, symName: __ZNSt3__16vectorI8customerNS_9allocatorIS1_EEE26__swap_out_circular_bufferERNS_14__split_bufferIS1_RS3_EE, symObjAddr: 0x4BC8, symBinAddr: 0x100007FDC, symSize: 0x110 }
  - { offsetInCU: 0x10FDB, offset: 0x10FDB, size: 0x8, addend: 0x0, symName: __ZNSt3__16vectorIiNS_9allocatorIiEEE26__swap_out_circular_bufferERNS_14__split_bufferIiRS2_EE, symObjAddr: 0x69C4, symBinAddr: 0x100009DD8, symSize: 0x110 }
  - { offsetInCU: 0x112C3, offset: 0x112C3, size: 0x8, addend: 0x0, symName: __ZNSt3__16vectorI7bookingNS_9allocatorIS1_EEE26__swap_out_circular_bufferERNS_14__split_bufferIS1_RS3_EE, symObjAddr: 0x7C90, symBinAddr: 0x10000B0A4, symSize: 0x110 }
  - { offsetInCU: 0x137EA, offset: 0x137EA, size: 0x8, addend: 0x0, symName: _main, symObjAddr: 0x0, symBinAddr: 0x100003414, symSize: 0x314 }
  - { offsetInCU: 0x13C55, offset: 0x13C55, size: 0x8, addend: 0x0, symName: __ZN5HotelC1Ev, symObjAddr: 0x314, symBinAddr: 0x100003728, symSize: 0x2C }
  - { offsetInCU: 0x13C81, offset: 0x13C81, size: 0x8, addend: 0x0, symName: __ZN5Hotel7addRoomERKNSt3__112basic_stringIcNS0_11char_traitsIcEENS0_9allocatorIcEEEEf, symObjAddr: 0x340, symBinAddr: 0x100003754, symSize: 0xCC }
  - { offsetInCU: 0x13CD7, offset: 0x13CD7, size: 0x8, addend: 0x0, symName: __ZNSt3__112basic_stringIcNS_11char_traitsIcEENS_9allocatorIcEEEC1B8ue170006ILi0EEEPKc, symObjAddr: 0x40C, symBinAddr: 0x100003820, symSize: 0x34 }
  - { offsetInCU: 0x13D16, offset: 0x13D16, size: 0x8, addend: 0x0, symName: __ZN5Hotel11addCustomerERKNSt3__112basic_stringIcNS0_11char_traitsIcEENS0_9allocatorIcEEEES8_, symObjAddr: 0x440, symBinAddr: 0x100003854, symSize: 0x104 }
  - { offsetInCU: 0x13D67, offset: 0x13D67, size: 0x8, addend: 0x0, symName: __ZN5Hotel8bookRoomEiiRKNSt3__112basic_stringIcNS0_11char_traitsIcEENS0_9allocatorIcEEEES8_, symObjAddr: 0x544, symBinAddr: 0x100003958, symSize: 0x304 }
  - { offsetInCU: 0x13E62, offset: 0x13E62, size: 0x8, addend: 0x0, symName: __ZN5Hotel17getNextCustomerIDEv, symObjAddr: 0x848, symBinAddr: 0x100003C5C, symSize: 0x18 }
  - { offsetInCU: 0x13E88, offset: 0x13E88, size: 0x8, addend: 0x0, symName: __ZN5Hotel17getNextRoomNumberEv, symObjAddr: 0x860, symBinAddr: 0x100003C74, symSize: 0x18 }
  - { offsetInCU: 0x13EAE, offset: 0x13EAE, size: 0x8, addend: 0x0, symName: __ZN5Hotel7checkInEi, symObjAddr: 0x878, symBinAddr: 0x100003C8C, symSize: 0x26C }
  - { offsetInCU: 0x13F32, offset: 0x13F32, size: 0x8, addend: 0x0, symName: __ZN5Hotel8checkOutEi, symObjAddr: 0xAE4, symBinAddr: 0x100003EF8, symSize: 0x1C0 }
  - { offsetInCU: 0x13F99, offset: 0x13F99, size: 0x8, addend: 0x0, symName: __ZN5HotelD1Ev, symObjAddr: 0xCA4, symBinAddr: 0x1000040B8, symSize: 0x2C }
  - { offsetInCU: 0x13FC5, offset: 0x13FC5, size: 0x8, addend: 0x0, symName: __ZN5HotelC2Ev, symObjAddr: 0xCD0, symBinAddr: 0x1000040E4, symSize: 0x54 }
  - { offsetInCU: 0x13FF1, offset: 0x13FF1, size: 0x8, addend: 0x0, symName: __ZNSt3__16vectorI4roomNS_9allocatorIS1_EEEC1B8ue170006Ev, symObjAddr: 0xD24, symBinAddr: 0x100004138, symSize: 0x2C }
  - { offsetInCU: 0x1401B, offset: 0x1401B, size: 0x8, addend: 0x0, symName: __ZNSt3__16vectorI8customerNS_9allocatorIS1_EEEC1B8ue170006Ev, symObjAddr: 0xD50, symBinAddr: 0x100004164, symSize: 0x2C }
  - { offsetInCU: 0x14045, offset: 0x14045, size: 0x8, addend: 0x0, symName: __ZNSt3__16vectorI7bookingNS_9allocatorIS1_EEEC1B8ue170006Ev, symObjAddr: 0xD7C, symBinAddr: 0x100004190, symSize: 0x2C }
  - { offsetInCU: 0x1406F, offset: 0x1406F, size: 0x8, addend: 0x0, symName: __ZNSt3__16vectorI4roomNS_9allocatorIS1_EEEC2B8ue170006Ev, symObjAddr: 0xDA8, symBinAddr: 0x1000041BC, symSize: 0x4C }
  - { offsetInCU: 0x140A5, offset: 0x140A5, size: 0x8, addend: 0x0, symName: __ZNSt3__117__compressed_pairIP4roomNS_9allocatorIS1_EEEC1B8ue170006IDnNS_18__default_init_tagEEEOT_OT0_, symObjAddr: 0xDF4, symBinAddr: 0x100004208, symSize: 0x3C }
  - { offsetInCU: 0x140FD, offset: 0x140FD, size: 0x8, addend: 0x0, symName: __ZNSt3__117__compressed_pairIP4roomNS_9allocatorIS1_EEEC2B8ue170006IDnNS_18__default_init_tagEEEOT_OT0_, symObjAddr: 0xE3C, symBinAddr: 0x100004250, symSize: 0x40 }
  - { offsetInCU: 0x14155, offset: 0x14155, size: 0x8, addend: 0x0, symName: __ZNSt3__122__compressed_pair_elemIP4roomLi0ELb0EEC2B8ue170006IDnvEEOT_, symObjAddr: 0xE7C, symBinAddr: 0x100004290, symSize: 0x1C }
  - { offsetInCU: 0x14197, offset: 0x14197, size: 0x8, addend: 0x0, symName: __ZNSt3__122__compressed_pair_elemINS_9allocatorI4roomEELi1ELb1EEC2B8ue170006ENS_18__default_init_tagE, symObjAddr: 0xE98, symBinAddr: 0x1000042AC, symSize: 0x2C }
  - { offsetInCU: 0x141CC, offset: 0x141CC, size: 0x8, addend: 0x0, symName: __ZNSt3__19allocatorI4roomEC2B8ue170006Ev, symObjAddr: 0xEC4, symBinAddr: 0x1000042D8, symSize: 0x2C }
  - { offsetInCU: 0x141F6, offset: 0x141F6, size: 0x8, addend: 0x0, symName: __ZNSt3__116__non_trivial_ifILb1ENS_9allocatorI4roomEEEC2B8ue170006Ev, symObjAddr: 0xEF0, symBinAddr: 0x100004304, symSize: 0x14 }
  - { offsetInCU: 0x14220, offset: 0x14220, size: 0x8, addend: 0x0, symName: __ZNSt3__16vectorI8customerNS_9allocatorIS1_EEEC2B8ue170006Ev, symObjAddr: 0xF04, symBinAddr: 0x100004318, symSize: 0x4C }
  - { offsetInCU: 0x1424A, offset: 0x1424A, size: 0x8, addend: 0x0, symName: __ZNSt3__117__compressed_pairIP8customerNS_9allocatorIS1_EEEC1B8ue170006IDnNS_18__default_init_tagEEEOT_OT0_, symObjAddr: 0xF50, symBinAddr: 0x100004364, symSize: 0x3C }
  - { offsetInCU: 0x142A2, offset: 0x142A2, size: 0x8, addend: 0x0, symName: __ZNSt3__117__compressed_pairIP8customerNS_9allocatorIS1_EEEC2B8ue170006IDnNS_18__default_init_tagEEEOT_OT0_, symObjAddr: 0xF8C, symBinAddr: 0x1000043A0, symSize: 0x40 }
  - { offsetInCU: 0x142FA, offset: 0x142FA, size: 0x8, addend: 0x0, symName: __ZNSt3__122__compressed_pair_elemIP8customerLi0ELb0EEC2B8ue170006IDnvEEOT_, symObjAddr: 0xFCC, symBinAddr: 0x1000043E0, symSize: 0x1C }
  - { offsetInCU: 0x1433C, offset: 0x1433C, size: 0x8, addend: 0x0, symName: __ZNSt3__122__compressed_pair_elemINS_9allocatorI8customerEELi1ELb1EEC2B8ue170006ENS_18__default_init_tagE, symObjAddr: 0xFE8, symBinAddr: 0x1000043FC, symSize: 0x2C }
  - { offsetInCU: 0x14371, offset: 0x14371, size: 0x8, addend: 0x0, symName: __ZNSt3__19allocatorI8customerEC2B8ue170006Ev, symObjAddr: 0x1014, symBinAddr: 0x100004428, symSize: 0x2C }
  - { offsetInCU: 0x1439B, offset: 0x1439B, size: 0x8, addend: 0x0, symName: __ZNSt3__116__non_trivial_ifILb1ENS_9allocatorI8customerEEEC2B8ue170006Ev, symObjAddr: 0x1040, symBinAddr: 0x100004454, symSize: 0x14 }
  - { offsetInCU: 0x143C5, offset: 0x143C5, size: 0x8, addend: 0x0, symName: __ZNSt3__16vectorI7bookingNS_9allocatorIS1_EEEC2B8ue170006Ev, symObjAddr: 0x1054, symBinAddr: 0x100004468, symSize: 0x4C }
  - { offsetInCU: 0x143EF, offset: 0x143EF, size: 0x8, addend: 0x0, symName: __ZNSt3__117__compressed_pairIP7bookingNS_9allocatorIS1_EEEC1B8ue170006IDnNS_18__default_init_tagEEEOT_OT0_, symObjAddr: 0x10A0, symBinAddr: 0x1000044B4, symSize: 0x3C }
  - { offsetInCU: 0x14447, offset: 0x14447, size: 0x8, addend: 0x0, symName: __ZNSt3__117__compressed_pairIP7bookingNS_9allocatorIS1_EEEC2B8ue170006IDnNS_18__default_init_tagEEEOT_OT0_, symObjAddr: 0x10DC, symBinAddr: 0x1000044F0, symSize: 0x40 }
  - { offsetInCU: 0x1449F, offset: 0x1449F, size: 0x8, addend: 0x0, symName: __ZNSt3__122__compressed_pair_elemIP7bookingLi0ELb0EEC2B8ue170006IDnvEEOT_, symObjAddr: 0x111C, symBinAddr: 0x100004530, symSize: 0x1C }
  - { offsetInCU: 0x144E1, offset: 0x144E1, size: 0x8, addend: 0x0, symName: __ZNSt3__122__compressed_pair_elemINS_9allocatorI7bookingEELi1ELb1EEC2B8ue170006ENS_18__default_init_tagE, symObjAddr: 0x1138, symBinAddr: 0x10000454C, symSize: 0x2C }
  - { offsetInCU: 0x14516, offset: 0x14516, size: 0x8, addend: 0x0, symName: __ZNSt3__19allocatorI7bookingEC2B8ue170006Ev, symObjAddr: 0x1164, symBinAddr: 0x100004578, symSize: 0x2C }
  - { offsetInCU: 0x14540, offset: 0x14540, size: 0x8, addend: 0x0, symName: __ZNSt3__116__non_trivial_ifILb1ENS_9allocatorI7bookingEEEC2B8ue170006Ev, symObjAddr: 0x1190, symBinAddr: 0x1000045A4, symSize: 0x14 }
  - { offsetInCU: 0x1456A, offset: 0x1456A, size: 0x8, addend: 0x0, symName: __ZN4roomC1EiNSt3__112basic_stringIcNS0_11char_traitsIcEENS0_9allocatorIcEEEEbf, symObjAddr: 0x11A4, symBinAddr: 0x1000045B8, symSize: 0x58 }
  - { offsetInCU: 0x145CD, offset: 0x145CD, size: 0x8, addend: 0x0, symName: __ZNSt3__16vectorI4roomNS_9allocatorIS1_EEE9push_backB8ue170006ERKS1_, symObjAddr: 0x11FC, symBinAddr: 0x100004610, symSize: 0x6C }
  - { offsetInCU: 0x14604, offset: 0x14604, size: 0x8, addend: 0x0, symName: __ZN4roomD1Ev, symObjAddr: 0x1268, symBinAddr: 0x10000467C, symSize: 0x2C }
  - { offsetInCU: 0x14630, offset: 0x14630, size: 0x8, addend: 0x0, symName: __ZN4roomC2EiNSt3__112basic_stringIcNS0_11char_traitsIcEENS0_9allocatorIcEEEEbf, symObjAddr: 0x1294, symBinAddr: 0x1000046A8, symSize: 0x70 }
  - { offsetInCU: 0x14693, offset: 0x14693, size: 0x8, addend: 0x0, symName: __ZNSt3__16vectorI4roomNS_9allocatorIS1_EEE9__end_capB8ue170006Ev, symObjAddr: 0x1304, symBinAddr: 0x100004718, symSize: 0x28 }
  - { offsetInCU: 0x146B9, offset: 0x146B9, size: 0x8, addend: 0x0, symName: __ZNSt3__16vectorI4roomNS_9allocatorIS1_EEE22__construct_one_at_endB8ue170006IJRKS1_EEEvDpOT_, symObjAddr: 0x132C, symBinAddr: 0x100004740, symSize: 0x90 }
  - { offsetInCU: 0x14708, offset: 0x14708, size: 0x8, addend: 0x0, symName: __ZNSt3__16vectorI4roomNS_9allocatorIS1_EEE21__push_back_slow_pathIRKS1_EEvOT_, symObjAddr: 0x13BC, symBinAddr: 0x1000047D0, symSize: 0xD8 }
  - { offsetInCU: 0x14766, offset: 0x14766, size: 0x8, addend: 0x0, symName: __ZNSt3__117__compressed_pairIP4roomNS_9allocatorIS1_EEE5firstB8ue170006Ev, symObjAddr: 0x1494, symBinAddr: 0x1000048A8, symSize: 0x24 }
  - { offsetInCU: 0x1478C, offset: 0x1478C, size: 0x8, addend: 0x0, symName: __ZNSt3__122__compressed_pair_elemIP4roomLi0ELb0EE5__getB8ue170006Ev, symObjAddr: 0x14B8, symBinAddr: 0x1000048CC, symSize: 0x14 }
  - { offsetInCU: 0x147CB, offset: 0x147CB, size: 0x8, addend: 0x0, symName: __ZNSt3__16vectorI4roomNS_9allocatorIS1_EEE21_ConstructTransactionC1B8ue170006ERS4_m, symObjAddr: 0x14CC, symBinAddr: 0x1000048E0, symSize: 0x3C }
  - { offsetInCU: 0x14813, offset: 0x14813, size: 0x8, addend: 0x0, symName: __ZNSt3__116allocator_traitsINS_9allocatorI4roomEEE9constructB8ue170006IS2_JRKS2_EvEEvRS3_PT_DpOT0_, symObjAddr: 0x1508, symBinAddr: 0x10000491C, symSize: 0x34 }
  - { offsetInCU: 0x1486A, offset: 0x1486A, size: 0x8, addend: 0x0, symName: __ZNSt3__16vectorI4roomNS_9allocatorIS1_EEE7__allocB8ue170006Ev, symObjAddr: 0x153C, symBinAddr: 0x100004950, symSize: 0x28 }
  - { offsetInCU: 0x14890, offset: 0x14890, size: 0x8, addend: 0x0, symName: __ZNSt3__16vectorI4roomNS_9allocatorIS1_EEE21_ConstructTransactionD1B8ue170006Ev, symObjAddr: 0x1578, symBinAddr: 0x10000498C, symSize: 0x2C }
  - { offsetInCU: 0x148BA, offset: 0x148BA, size: 0x8, addend: 0x0, symName: __ZNSt3__16vectorI4roomNS_9allocatorIS1_EEE21_ConstructTransactionC2B8ue170006ERS4_m, symObjAddr: 0x15A4, symBinAddr: 0x1000049B8, symSize: 0x4C }
  - { offsetInCU: 0x14902, offset: 0x14902, size: 0x8, addend: 0x0, symName: __ZNSt3__19allocatorI4roomE9constructB8ue170006IS1_JRKS1_EEEvPT_DpOT0_, symObjAddr: 0x15F0, symBinAddr: 0x100004A04, symSize: 0x30 }
  - { offsetInCU: 0x14958, offset: 0x14958, size: 0x8, addend: 0x0, symName: __ZN4roomC1ERKS_, symObjAddr: 0x1620, symBinAddr: 0x100004A34, symSize: 0x34 }
  - { offsetInCU: 0x1498D, offset: 0x1498D, size: 0x8, addend: 0x0, symName: __ZN4roomC2ERKS_, symObjAddr: 0x1654, symBinAddr: 0x100004A68, symSize: 0x54 }
  - { offsetInCU: 0x149C2, offset: 0x149C2, size: 0x8, addend: 0x0, symName: __ZNSt3__117__compressed_pairIP4roomNS_9allocatorIS1_EEE6secondB8ue170006Ev, symObjAddr: 0x16A8, symBinAddr: 0x100004ABC, symSize: 0x24 }
  - { offsetInCU: 0x149E8, offset: 0x149E8, size: 0x8, addend: 0x0, symName: __ZNSt3__122__compressed_pair_elemINS_9allocatorI4roomEELi1ELb1EE5__getB8ue170006Ev, symObjAddr: 0x16CC, symBinAddr: 0x100004AE0, symSize: 0x14 }
  - { offsetInCU: 0x14A0E, offset: 0x14A0E, size: 0x8, addend: 0x0, symName: __ZNSt3__16vectorI4roomNS_9allocatorIS1_EEE21_ConstructTransactionD2B8ue170006Ev, symObjAddr: 0x16E0, symBinAddr: 0x100004AF4, symSize: 0x20 }
  - { offsetInCU: 0x14A38, offset: 0x14A38, size: 0x8, addend: 0x0, symName: __ZNKSt3__16vectorI4roomNS_9allocatorIS1_EEE11__recommendB8ue170006Em, symObjAddr: 0x1700, symBinAddr: 0x100004B14, symSize: 0xB4 }
  - { offsetInCU: 0x14A8D, offset: 0x14A8D, size: 0x8, addend: 0x0, symName: __ZNKSt3__16vectorI4roomNS_9allocatorIS1_EEE4sizeB8ue170006Ev, symObjAddr: 0x17B4, symBinAddr: 0x100004BC8, symSize: 0x28 }
  - { offsetInCU: 0x14AB3, offset: 0x14AB3, size: 0x8, addend: 0x0, symName: __ZNSt3__114__split_bufferI4roomRNS_9allocatorIS1_EEEC1EmmS4_, symObjAddr: 0x17DC, symBinAddr: 0x100004BF0, symSize: 0x44 }
  - { offsetInCU: 0x14B09, offset: 0x14B09, size: 0x8, addend: 0x0, symName: __ZNSt3__114__split_bufferI4roomRNS_9allocatorIS1_EEED1Ev, symObjAddr: 0x1930, symBinAddr: 0x100004D44, symSize: 0x2C }
  - { offsetInCU: 0x14B35, offset: 0x14B35, size: 0x8, addend: 0x0, symName: __ZNKSt3__16vectorI4roomNS_9allocatorIS1_EEE8max_sizeEv, symObjAddr: 0x195C, symBinAddr: 0x100004D70, symSize: 0x60 }
  - { offsetInCU: 0x14B5D, offset: 0x14B5D, size: 0x8, addend: 0x0, symName: __ZNKSt3__16vectorI4roomNS_9allocatorIS1_EEE20__throw_length_errorB8ue170006Ev, symObjAddr: 0x19BC, symBinAddr: 0x100004DD0, symSize: 0x1C }
  - { offsetInCU: 0x14B83, offset: 0x14B83, size: 0x8, addend: 0x0, symName: __ZNKSt3__16vectorI4roomNS_9allocatorIS1_EEE8capacityB8ue170006Ev, symObjAddr: 0x19D8, symBinAddr: 0x100004DEC, symSize: 0x40 }
  - { offsetInCU: 0x14BB3, offset: 0x14BB3, size: 0x8, addend: 0x0, symName: __ZNSt3__116allocator_traitsINS_9allocatorI4roomEEE8max_sizeB8ue170006IS3_vEEmRKS3_, symObjAddr: 0x1A70, symBinAddr: 0x100004E84, symSize: 0x24 }
  - { offsetInCU: 0x14BE1, offset: 0x14BE1, size: 0x8, addend: 0x0, symName: __ZNKSt3__16vectorI4roomNS_9allocatorIS1_EEE7__allocB8ue170006Ev, symObjAddr: 0x1A94, symBinAddr: 0x100004EA8, symSize: 0x28 }
  - { offsetInCU: 0x14C07, offset: 0x14C07, size: 0x8, addend: 0x0, symName: __ZNSt3__114numeric_limitsIlE3maxB8ue170006Ev, symObjAddr: 0x1ABC, symBinAddr: 0x100004ED0, symSize: 0x14 }
  - { offsetInCU: 0x14C2F, offset: 0x14C2F, size: 0x8, addend: 0x0, symName: __ZNKSt3__16__lessIvvEclB8ue170006ImmEEbRKT_RKT0_, symObjAddr: 0x1B24, symBinAddr: 0x100004F38, symSize: 0x34 }
  - { offsetInCU: 0x14C83, offset: 0x14C83, size: 0x8, addend: 0x0, symName: __ZNKSt3__19allocatorI4roomE8max_sizeB8ue170006Ev, symObjAddr: 0x1B58, symBinAddr: 0x100004F6C, symSize: 0x18 }
  - { offsetInCU: 0x14CA9, offset: 0x14CA9, size: 0x8, addend: 0x0, symName: __ZNKSt3__117__compressed_pairIP4roomNS_9allocatorIS1_EEE6secondB8ue170006Ev, symObjAddr: 0x1B70, symBinAddr: 0x100004F84, symSize: 0x24 }
  - { offsetInCU: 0x14CCF, offset: 0x14CCF, size: 0x8, addend: 0x0, symName: __ZNKSt3__122__compressed_pair_elemINS_9allocatorI4roomEELi1ELb1EE5__getB8ue170006Ev, symObjAddr: 0x1B94, symBinAddr: 0x100004FA8, symSize: 0x14 }
  - { offsetInCU: 0x14CF5, offset: 0x14CF5, size: 0x8, addend: 0x0, symName: __ZNSt3__123__libcpp_numeric_limitsIlLb1EE3maxB8ue170006Ev, symObjAddr: 0x1BA8, symBinAddr: 0x100004FBC, symSize: 0x8 }
  - { offsetInCU: 0x14D09, offset: 0x14D09, size: 0x8, addend: 0x0, symName: __ZNSt12length_errorC1B8ue170006EPKc, symObjAddr: 0x1C14, symBinAddr: 0x100005028, symSize: 0x34 }
  - { offsetInCU: 0x14D41, offset: 0x14D41, size: 0x8, addend: 0x0, symName: __ZNSt12length_errorC2B8ue170006EPKc, symObjAddr: 0x1C48, symBinAddr: 0x10000505C, symSize: 0x4C }
  - { offsetInCU: 0x14D79, offset: 0x14D79, size: 0x8, addend: 0x0, symName: __ZNKSt3__16vectorI4roomNS_9allocatorIS1_EEE9__end_capB8ue170006Ev, symObjAddr: 0x1C94, symBinAddr: 0x1000050A8, symSize: 0x28 }
  - { offsetInCU: 0x14D9F, offset: 0x14D9F, size: 0x8, addend: 0x0, symName: __ZNKSt3__117__compressed_pairIP4roomNS_9allocatorIS1_EEE5firstB8ue170006Ev, symObjAddr: 0x1CBC, symBinAddr: 0x1000050D0, symSize: 0x24 }
  - { offsetInCU: 0x14DC5, offset: 0x14DC5, size: 0x8, addend: 0x0, symName: __ZNKSt3__122__compressed_pair_elemIP4roomLi0ELb0EE5__getB8ue170006Ev, symObjAddr: 0x1CE0, symBinAddr: 0x1000050F4, symSize: 0x14 }
  - { offsetInCU: 0x14DEB, offset: 0x14DEB, size: 0x8, addend: 0x0, symName: __ZNSt3__114__split_bufferI4roomRNS_9allocatorIS1_EEEC2EmmS4_, symObjAddr: 0x1D48, symBinAddr: 0x10000515C, symSize: 0xE0 }
  - { offsetInCU: 0x14E5E, offset: 0x14E5E, size: 0x8, addend: 0x0, symName: __ZNSt3__117__compressed_pairIP4roomRNS_9allocatorIS1_EEEC1B8ue170006IDnS5_EEOT_OT0_, symObjAddr: 0x1E28, symBinAddr: 0x10000523C, symSize: 0x3C }
  - { offsetInCU: 0x14EB6, offset: 0x14EB6, size: 0x8, addend: 0x0, symName: __ZNSt3__114__split_bufferI4roomRNS_9allocatorIS1_EEE7__allocB8ue170006Ev, symObjAddr: 0x1EA4, symBinAddr: 0x1000052B8, symSize: 0x28 }
  - { offsetInCU: 0x14EDC, offset: 0x14EDC, size: 0x8, addend: 0x0, symName: __ZNSt3__114__split_bufferI4roomRNS_9allocatorIS1_EEE9__end_capB8ue170006Ev, symObjAddr: 0x1ECC, symBinAddr: 0x1000052E0, symSize: 0x28 }
  - { offsetInCU: 0x14F02, offset: 0x14F02, size: 0x8, addend: 0x0, symName: __ZNSt3__117__compressed_pairIP4roomRNS_9allocatorIS1_EEEC2B8ue170006IDnS5_EEOT_OT0_, symObjAddr: 0x1EF4, symBinAddr: 0x100005308, symSize: 0x48 }
  - { offsetInCU: 0x14F5A, offset: 0x14F5A, size: 0x8, addend: 0x0, symName: __ZNSt3__122__compressed_pair_elemIRNS_9allocatorI4roomEELi1ELb0EEC2B8ue170006IS4_vEEOT_, symObjAddr: 0x1F3C, symBinAddr: 0x100005350, symSize: 0x20 }
  - { offsetInCU: 0x14F9C, offset: 0x14F9C, size: 0x8, addend: 0x0, symName: __ZNSt3__19allocatorI4roomE8allocateB8ue170006Em, symObjAddr: 0x1F5C, symBinAddr: 0x100005370, symSize: 0x5C }
  - { offsetInCU: 0x14FD0, offset: 0x14FD0, size: 0x8, addend: 0x0, symName: __ZNSt3__117__compressed_pairIP4roomRNS_9allocatorIS1_EEE6secondB8ue170006Ev, symObjAddr: 0x20BC, symBinAddr: 0x1000054D0, symSize: 0x28 }
  - { offsetInCU: 0x14FF6, offset: 0x14FF6, size: 0x8, addend: 0x0, symName: __ZNSt3__122__compressed_pair_elemIRNS_9allocatorI4roomEELi1ELb0EE5__getB8ue170006Ev, symObjAddr: 0x20E4, symBinAddr: 0x1000054F8, symSize: 0x18 }
  - { offsetInCU: 0x1501C, offset: 0x1501C, size: 0x8, addend: 0x0, symName: __ZNSt3__117__compressed_pairIP4roomRNS_9allocatorIS1_EEE5firstB8ue170006Ev, symObjAddr: 0x20FC, symBinAddr: 0x100005510, symSize: 0x24 }
  - { offsetInCU: 0x15042, offset: 0x15042, size: 0x8, addend: 0x0, symName: __ZNKSt3__16vectorI4roomNS_9allocatorIS1_EEE17__annotate_deleteB8ue170006Ev, symObjAddr: 0x2120, symBinAddr: 0x100005534, symSize: 0xD4 }
  - { offsetInCU: 0x15068, offset: 0x15068, size: 0x8, addend: 0x0, symName: __ZNSt3__116reverse_iteratorIP4roomEC1B8ue170006ES2_, symObjAddr: 0x2320, symBinAddr: 0x100005734, symSize: 0x34 }
  - { offsetInCU: 0x150A0, offset: 0x150A0, size: 0x8, addend: 0x0, symName: __ZNKSt3__116reverse_iteratorIP4roomE4baseB8ue170006Ev, symObjAddr: 0x2354, symBinAddr: 0x100005768, symSize: 0x18 }
  - { offsetInCU: 0x150C6, offset: 0x150C6, size: 0x8, addend: 0x0, symName: __ZNKSt3__16vectorI4roomNS_9allocatorIS1_EEE14__annotate_newB8ue170006Em, symObjAddr: 0x23A8, symBinAddr: 0x1000057BC, symSize: 0xC8 }
  - { offsetInCU: 0x150FB, offset: 0x150FB, size: 0x8, addend: 0x0, symName: __ZNKSt3__16vectorI4roomNS_9allocatorIS1_EEE31__annotate_contiguous_containerB8ue170006EPKvS6_S6_S6_, symObjAddr: 0x2470, symBinAddr: 0x100005884, symSize: 0x20 }
  - { offsetInCU: 0x1514D, offset: 0x1514D, size: 0x8, addend: 0x0, symName: __ZNKSt3__16vectorI4roomNS_9allocatorIS1_EEE4dataB8ue170006Ev, symObjAddr: 0x2490, symBinAddr: 0x1000058A4, symSize: 0x28 }
  - { offsetInCU: 0x15173, offset: 0x15173, size: 0x8, addend: 0x0, symName: __ZNSt3__129_AllocatorDestroyRangeReverseINS_9allocatorI4roomEENS_16reverse_iteratorIPS2_EEEC1B8ue170006ERS3_RS6_S9_, symObjAddr: 0x2504, symBinAddr: 0x100005918, symSize: 0x44 }
  - { offsetInCU: 0x151D0, offset: 0x151D0, size: 0x8, addend: 0x0, symName: __ZNSt3__116allocator_traitsINS_9allocatorI4roomEEE9constructB8ue170006IS2_JS2_EvEEvRS3_PT_DpOT0_, symObjAddr: 0x2590, symBinAddr: 0x1000059A4, symSize: 0x34 }
  - { offsetInCU: 0x15227, offset: 0x15227, size: 0x8, addend: 0x0, symName: __ZNKSt3__116reverse_iteratorIP4roomEdeB8ue170006Ev, symObjAddr: 0x25E8, symBinAddr: 0x1000059FC, symSize: 0x28 }
  - { offsetInCU: 0x1525B, offset: 0x1525B, size: 0x8, addend: 0x0, symName: __ZNSt3__116reverse_iteratorIP4roomEppB8ue170006Ev, symObjAddr: 0x2610, symBinAddr: 0x100005A24, symSize: 0x20 }
  - { offsetInCU: 0x15281, offset: 0x15281, size: 0x8, addend: 0x0, symName: __ZNSt3__128__exception_guard_exceptionsINS_29_AllocatorDestroyRangeReverseINS_9allocatorI4roomEENS_16reverse_iteratorIPS3_EEEEE10__completeB8ue170006Ev, symObjAddr: 0x2630, symBinAddr: 0x100005A44, symSize: 0x1C }
  - { offsetInCU: 0x152A7, offset: 0x152A7, size: 0x8, addend: 0x0, symName: __ZNSt3__128__exception_guard_exceptionsINS_29_AllocatorDestroyRangeReverseINS_9allocatorI4roomEENS_16reverse_iteratorIPS3_EEEEED1B8ue170006Ev, symObjAddr: 0x264C, symBinAddr: 0x100005A60, symSize: 0x2C }
  - { offsetInCU: 0x152D1, offset: 0x152D1, size: 0x8, addend: 0x0, symName: __ZNSt3__128__exception_guard_exceptionsINS_29_AllocatorDestroyRangeReverseINS_9allocatorI4roomEENS_16reverse_iteratorIPS3_EEEEEC1B8ue170006ES8_, symObjAddr: 0x2678, symBinAddr: 0x100005A8C, symSize: 0x34 }
  - { offsetInCU: 0x1530A, offset: 0x1530A, size: 0x8, addend: 0x0, symName: __ZNSt3__128__exception_guard_exceptionsINS_29_AllocatorDestroyRangeReverseINS_9allocatorI4roomEENS_16reverse_iteratorIPS3_EEEEEC2B8ue170006ES8_, symObjAddr: 0x26AC, symBinAddr: 0x100005AC0, symSize: 0x30 }
  - { offsetInCU: 0x15343, offset: 0x15343, size: 0x8, addend: 0x0, symName: __ZNSt3__129_AllocatorDestroyRangeReverseINS_9allocatorI4roomEENS_16reverse_iteratorIPS2_EEEC2B8ue170006ERS3_RS6_S9_, symObjAddr: 0x26DC, symBinAddr: 0x100005AF0, symSize: 0x38 }
  - { offsetInCU: 0x1539A, offset: 0x1539A, size: 0x8, addend: 0x0, symName: __ZNSt3__19allocatorI4roomE9constructB8ue170006IS1_JS1_EEEvPT_DpOT0_, symObjAddr: 0x2714, symBinAddr: 0x100005B28, symSize: 0x30 }
  - { offsetInCU: 0x153F0, offset: 0x153F0, size: 0x8, addend: 0x0, symName: __ZN4roomC1EOS_, symObjAddr: 0x2744, symBinAddr: 0x100005B58, symSize: 0x34 }
  - { offsetInCU: 0x15425, offset: 0x15425, size: 0x8, addend: 0x0, symName: __ZN4roomC2EOS_, symObjAddr: 0x2778, symBinAddr: 0x100005B8C, symSize: 0x54 }
  - { offsetInCU: 0x1545A, offset: 0x1545A, size: 0x8, addend: 0x0, symName: __ZNSt3__112basic_stringIcNS_11char_traitsIcEENS_9allocatorIcEEEC1B8ue170006EOS5_, symObjAddr: 0x27CC, symBinAddr: 0x100005BE0, symSize: 0x34 }
  - { offsetInCU: 0x15493, offset: 0x15493, size: 0x8, addend: 0x0, symName: __ZNSt3__112basic_stringIcNS_11char_traitsIcEENS_9allocatorIcEEEC2B8ue170006EOS5_, symObjAddr: 0x2800, symBinAddr: 0x100005C14, symSize: 0x50 }
  - { offsetInCU: 0x154CC, offset: 0x154CC, size: 0x8, addend: 0x0, symName: __ZNSt3__112basic_stringIcNS_11char_traitsIcEENS_9allocatorIcEEE14__default_initB8ue170006Ev, symObjAddr: 0x2850, symBinAddr: 0x100005C64, symSize: 0x40 }
  - { offsetInCU: 0x154F2, offset: 0x154F2, size: 0x8, addend: 0x0, symName: __ZNSt3__117__compressed_pairINS_12basic_stringIcNS_11char_traitsIcEENS_9allocatorIcEEE5__repES5_E5firstB8ue170006Ev, symObjAddr: 0x2890, symBinAddr: 0x100005CA4, symSize: 0x24 }
  - { offsetInCU: 0x15518, offset: 0x15518, size: 0x8, addend: 0x0, symName: __ZNSt3__122__compressed_pair_elemINS_12basic_stringIcNS_11char_traitsIcEENS_9allocatorIcEEE5__repELi0ELb0EE5__getB8ue170006Ev, symObjAddr: 0x28B4, symBinAddr: 0x100005CC8, symSize: 0x14 }
  - { offsetInCU: 0x15543, offset: 0x15543, size: 0x8, addend: 0x0, symName: __ZNSt3__119__to_address_helperINS_16reverse_iteratorIP4roomEEvE6__callB8ue170006ERKS4_, symObjAddr: 0x28C8, symBinAddr: 0x100005CDC, symSize: 0x38 }
  - { offsetInCU: 0x15566, offset: 0x15566, size: 0x8, addend: 0x0, symName: __ZNKSt3__116reverse_iteratorIP4roomEptB8ue170006Ev, symObjAddr: 0x2900, symBinAddr: 0x100005D14, symSize: 0x24 }
  - { offsetInCU: 0x1558C, offset: 0x1558C, size: 0x8, addend: 0x0, symName: __ZNSt3__128__exception_guard_exceptionsINS_29_AllocatorDestroyRangeReverseINS_9allocatorI4roomEENS_16reverse_iteratorIPS3_EEEEED2B8ue170006Ev, symObjAddr: 0x2924, symBinAddr: 0x100005D38, symSize: 0x50 }
  - { offsetInCU: 0x155B6, offset: 0x155B6, size: 0x8, addend: 0x0, symName: __ZNKSt3__129_AllocatorDestroyRangeReverseINS_9allocatorI4roomEENS_16reverse_iteratorIPS2_EEEclB8ue170006Ev, symObjAddr: 0x2974, symBinAddr: 0x100005D88, symSize: 0xB4 }
  - { offsetInCU: 0x155DD, offset: 0x155DD, size: 0x8, addend: 0x0, symName: __ZNSt3__116reverse_iteratorINS0_IP4roomEEEC1B8ue170006ES3_, symObjAddr: 0x2A98, symBinAddr: 0x100005EAC, symSize: 0x3C }
  - { offsetInCU: 0x15615, offset: 0x15615, size: 0x8, addend: 0x0, symName: __ZNSt3__116allocator_traitsINS_9allocatorI4roomEEE7destroyB8ue170006IS2_vEEvRS3_PT_, symObjAddr: 0x2B34, symBinAddr: 0x100005F48, symSize: 0x2C }
  - { offsetInCU: 0x15652, offset: 0x15652, size: 0x8, addend: 0x0, symName: __ZNSt3__116reverse_iteratorINS0_IP4roomEEEppB8ue170006Ev, symObjAddr: 0x2B84, symBinAddr: 0x100005F98, symSize: 0x30 }
  - { offsetInCU: 0x15678, offset: 0x15678, size: 0x8, addend: 0x0, symName: __ZNKSt3__116reverse_iteratorINS0_IP4roomEEE4baseB8ue170006Ev, symObjAddr: 0x2BB4, symBinAddr: 0x100005FC8, symSize: 0x24 }
  - { offsetInCU: 0x1569E, offset: 0x1569E, size: 0x8, addend: 0x0, symName: __ZNSt3__19allocatorI4roomE7destroyB8ue170006EPS1_, symObjAddr: 0x2BD8, symBinAddr: 0x100005FEC, symSize: 0x28 }
  - { offsetInCU: 0x156D7, offset: 0x156D7, size: 0x8, addend: 0x0, symName: __ZNSt3__119__to_address_helperINS_16reverse_iteratorINS1_IP4roomEEEEvE6__callB8ue170006ERKS5_, symObjAddr: 0x2C00, symBinAddr: 0x100006014, symSize: 0x38 }
  - { offsetInCU: 0x156FA, offset: 0x156FA, size: 0x8, addend: 0x0, symName: __ZNKSt3__116reverse_iteratorINS0_IP4roomEEEptB8ue170006Ev, symObjAddr: 0x2C38, symBinAddr: 0x10000604C, symSize: 0x24 }
  - { offsetInCU: 0x15720, offset: 0x15720, size: 0x8, addend: 0x0, symName: __ZNKSt3__116reverse_iteratorINS0_IP4roomEEEdeB8ue170006Ev, symObjAddr: 0x2C5C, symBinAddr: 0x100006070, symSize: 0x34 }
  - { offsetInCU: 0x15754, offset: 0x15754, size: 0x8, addend: 0x0, symName: __ZNSt3__116reverse_iteratorIP4roomEmmB8ue170006Ev, symObjAddr: 0x2C90, symBinAddr: 0x1000060A4, symSize: 0x20 }
  - { offsetInCU: 0x1577A, offset: 0x1577A, size: 0x8, addend: 0x0, symName: __ZNSt3__116reverse_iteratorINS0_IP4roomEEEC2B8ue170006ES3_, symObjAddr: 0x2CB0, symBinAddr: 0x1000060C4, symSize: 0x2C }
  - { offsetInCU: 0x157B2, offset: 0x157B2, size: 0x8, addend: 0x0, symName: __ZNSt3__116reverse_iteratorIP4roomEC2B8ue170006ES2_, symObjAddr: 0x2CDC, symBinAddr: 0x1000060F0, symSize: 0x28 }
  - { offsetInCU: 0x157EA, offset: 0x157EA, size: 0x8, addend: 0x0, symName: __ZNSt3__114__split_bufferI4roomRNS_9allocatorIS1_EEED2Ev, symObjAddr: 0x2D04, symBinAddr: 0x100006118, symSize: 0x8C }
  - { offsetInCU: 0x15816, offset: 0x15816, size: 0x8, addend: 0x0, symName: __ZNSt3__114__split_bufferI4roomRNS_9allocatorIS1_EEE5clearB8ue170006Ev, symObjAddr: 0x2D90, symBinAddr: 0x1000061A4, symSize: 0x28 }
  - { offsetInCU: 0x1583C, offset: 0x1583C, size: 0x8, addend: 0x0, symName: __ZNSt3__116allocator_traitsINS_9allocatorI4roomEEE10deallocateB8ue170006ERS3_PS2_m, symObjAddr: 0x2DB8, symBinAddr: 0x1000061CC, symSize: 0x34 }
  - { offsetInCU: 0x1587E, offset: 0x1587E, size: 0x8, addend: 0x0, symName: __ZNKSt3__114__split_bufferI4roomRNS_9allocatorIS1_EEE8capacityB8ue170006Ev, symObjAddr: 0x2DEC, symBinAddr: 0x100006200, symSize: 0x40 }
  - { offsetInCU: 0x158A4, offset: 0x158A4, size: 0x8, addend: 0x0, symName: __ZNSt3__114__split_bufferI4roomRNS_9allocatorIS1_EEE17__destruct_at_endB8ue170006EPS1_, symObjAddr: 0x2E2C, symBinAddr: 0x100006240, symSize: 0x2C }
  - { offsetInCU: 0x158D8, offset: 0x158D8, size: 0x8, addend: 0x0, symName: __ZNSt3__114__split_bufferI4roomRNS_9allocatorIS1_EEE17__destruct_at_endB8ue170006EPS1_NS_17integral_constantIbLb0EEE, symObjAddr: 0x2E58, symBinAddr: 0x10000626C, symSize: 0x80 }
  - { offsetInCU: 0x15919, offset: 0x15919, size: 0x8, addend: 0x0, symName: __ZNSt3__19allocatorI4roomE10deallocateB8ue170006EPS1_m, symObjAddr: 0x2ED8, symBinAddr: 0x1000062EC, symSize: 0x44 }
  - { offsetInCU: 0x1595B, offset: 0x1595B, size: 0x8, addend: 0x0, symName: __ZNKSt3__114__split_bufferI4roomRNS_9allocatorIS1_EEE9__end_capB8ue170006Ev, symObjAddr: 0x3024, symBinAddr: 0x100006438, symSize: 0x28 }
  - { offsetInCU: 0x15981, offset: 0x15981, size: 0x8, addend: 0x0, symName: __ZNKSt3__117__compressed_pairIP4roomRNS_9allocatorIS1_EEE5firstB8ue170006Ev, symObjAddr: 0x304C, symBinAddr: 0x100006460, symSize: 0x24 }
  - { offsetInCU: 0x159A7, offset: 0x159A7, size: 0x8, addend: 0x0, symName: __ZN4roomD2Ev, symObjAddr: 0x3070, symBinAddr: 0x100006484, symSize: 0x30 }
  - { offsetInCU: 0x159D3, offset: 0x159D3, size: 0x8, addend: 0x0, symName: __ZN8customerC1EiNSt3__112basic_stringIcNS0_11char_traitsIcEENS0_9allocatorIcEEEES6_, symObjAddr: 0x30A0, symBinAddr: 0x1000064B4, symSize: 0x44 }
  - { offsetInCU: 0x15A29, offset: 0x15A29, size: 0x8, addend: 0x0, symName: __ZNSt3__16vectorI8customerNS_9allocatorIS1_EEE9push_backB8ue170006ERKS1_, symObjAddr: 0x30E4, symBinAddr: 0x1000064F8, symSize: 0x6C }
  - { offsetInCU: 0x15A60, offset: 0x15A60, size: 0x8, addend: 0x0, symName: __ZN8customerD1Ev, symObjAddr: 0x3150, symBinAddr: 0x100006564, symSize: 0x2C }
  - { offsetInCU: 0x15A8C, offset: 0x15A8C, size: 0x8, addend: 0x0, symName: __ZN8customerC2EiNSt3__112basic_stringIcNS0_11char_traitsIcEENS0_9allocatorIcEEEES6_, symObjAddr: 0x317C, symBinAddr: 0x100006590, symSize: 0x9C }
  - { offsetInCU: 0x15AE2, offset: 0x15AE2, size: 0x8, addend: 0x0, symName: __ZNSt3__16vectorIiNS_9allocatorIiEEEC1B8ue170006Ev, symObjAddr: 0x3218, symBinAddr: 0x10000662C, symSize: 0x2C }
  - { offsetInCU: 0x15B0C, offset: 0x15B0C, size: 0x8, addend: 0x0, symName: __ZNSt3__16vectorIiNS_9allocatorIiEEEC2B8ue170006Ev, symObjAddr: 0x3244, symBinAddr: 0x100006658, symSize: 0x4C }
  - { offsetInCU: 0x15B36, offset: 0x15B36, size: 0x8, addend: 0x0, symName: __ZNSt3__117__compressed_pairIPiNS_9allocatorIiEEEC1B8ue170006IDnNS_18__default_init_tagEEEOT_OT0_, symObjAddr: 0x3290, symBinAddr: 0x1000066A4, symSize: 0x3C }
  - { offsetInCU: 0x15B8E, offset: 0x15B8E, size: 0x8, addend: 0x0, symName: __ZNSt3__117__compressed_pairIPiNS_9allocatorIiEEEC2B8ue170006IDnNS_18__default_init_tagEEEOT_OT0_, symObjAddr: 0x32CC, symBinAddr: 0x1000066E0, symSize: 0x40 }
  - { offsetInCU: 0x15BE6, offset: 0x15BE6, size: 0x8, addend: 0x0, symName: __ZNSt3__122__compressed_pair_elemIPiLi0ELb0EEC2B8ue170006IDnvEEOT_, symObjAddr: 0x330C, symBinAddr: 0x100006720, symSize: 0x1C }
  - { offsetInCU: 0x15C28, offset: 0x15C28, size: 0x8, addend: 0x0, symName: __ZNSt3__122__compressed_pair_elemINS_9allocatorIiEELi1ELb1EEC2B8ue170006ENS_18__default_init_tagE, symObjAddr: 0x3328, symBinAddr: 0x10000673C, symSize: 0x2C }
  - { offsetInCU: 0x15C5D, offset: 0x15C5D, size: 0x8, addend: 0x0, symName: __ZNSt3__19allocatorIiEC2B8ue170006Ev, symObjAddr: 0x3354, symBinAddr: 0x100006768, symSize: 0x2C }
  - { offsetInCU: 0x15C87, offset: 0x15C87, size: 0x8, addend: 0x0, symName: __ZNSt3__116__non_trivial_ifILb1ENS_9allocatorIiEEEC2B8ue170006Ev, symObjAddr: 0x3380, symBinAddr: 0x100006794, symSize: 0x14 }
  - { offsetInCU: 0x15CB1, offset: 0x15CB1, size: 0x8, addend: 0x0, symName: __ZNSt3__16vectorI8customerNS_9allocatorIS1_EEE9__end_capB8ue170006Ev, symObjAddr: 0x3394, symBinAddr: 0x1000067A8, symSize: 0x28 }
  - { offsetInCU: 0x15CD7, offset: 0x15CD7, size: 0x8, addend: 0x0, symName: __ZNSt3__16vectorI8customerNS_9allocatorIS1_EEE22__construct_one_at_endB8ue170006IJRKS1_EEEvDpOT_, symObjAddr: 0x33BC, symBinAddr: 0x1000067D0, symSize: 0x90 }
  - { offsetInCU: 0x15D26, offset: 0x15D26, size: 0x8, addend: 0x0, symName: __ZNSt3__16vectorI8customerNS_9allocatorIS1_EEE21__push_back_slow_pathIRKS1_EEvOT_, symObjAddr: 0x344C, symBinAddr: 0x100006860, symSize: 0xD8 }
  - { offsetInCU: 0x15D84, offset: 0x15D84, size: 0x8, addend: 0x0, symName: __ZNSt3__117__compressed_pairIP8customerNS_9allocatorIS1_EEE5firstB8ue170006Ev, symObjAddr: 0x3524, symBinAddr: 0x100006938, symSize: 0x24 }
  - { offsetInCU: 0x15DAA, offset: 0x15DAA, size: 0x8, addend: 0x0, symName: __ZNSt3__122__compressed_pair_elemIP8customerLi0ELb0EE5__getB8ue170006Ev, symObjAddr: 0x3548, symBinAddr: 0x10000695C, symSize: 0x14 }
  - { offsetInCU: 0x15DE9, offset: 0x15DE9, size: 0x8, addend: 0x0, symName: __ZNSt3__16vectorI8customerNS_9allocatorIS1_EEE21_ConstructTransactionC1B8ue170006ERS4_m, symObjAddr: 0x355C, symBinAddr: 0x100006970, symSize: 0x3C }
  - { offsetInCU: 0x15E31, offset: 0x15E31, size: 0x8, addend: 0x0, symName: __ZNSt3__116allocator_traitsINS_9allocatorI8customerEEE9constructB8ue170006IS2_JRKS2_EvEEvRS3_PT_DpOT0_, symObjAddr: 0x3598, symBinAddr: 0x1000069AC, symSize: 0x34 }
  - { offsetInCU: 0x15E88, offset: 0x15E88, size: 0x8, addend: 0x0, symName: __ZNSt3__16vectorI8customerNS_9allocatorIS1_EEE7__allocB8ue170006Ev, symObjAddr: 0x35CC, symBinAddr: 0x1000069E0, symSize: 0x28 }
  - { offsetInCU: 0x15EAE, offset: 0x15EAE, size: 0x8, addend: 0x0, symName: __ZNSt3__16vectorI8customerNS_9allocatorIS1_EEE21_ConstructTransactionD1B8ue170006Ev, symObjAddr: 0x3608, symBinAddr: 0x100006A1C, symSize: 0x2C }
  - { offsetInCU: 0x15ED8, offset: 0x15ED8, size: 0x8, addend: 0x0, symName: __ZNSt3__16vectorI8customerNS_9allocatorIS1_EEE21_ConstructTransactionC2B8ue170006ERS4_m, symObjAddr: 0x3634, symBinAddr: 0x100006A48, symSize: 0x4C }
  - { offsetInCU: 0x15F20, offset: 0x15F20, size: 0x8, addend: 0x0, symName: __ZNSt3__19allocatorI8customerE9constructB8ue170006IS1_JRKS1_EEEvPT_DpOT0_, symObjAddr: 0x3680, symBinAddr: 0x100006A94, symSize: 0x30 }
  - { offsetInCU: 0x15F76, offset: 0x15F76, size: 0x8, addend: 0x0, symName: __ZN8customerC1ERKS_, symObjAddr: 0x36B0, symBinAddr: 0x100006AC4, symSize: 0x34 }
  - { offsetInCU: 0x15FAB, offset: 0x15FAB, size: 0x8, addend: 0x0, symName: __ZN8customerC2ERKS_, symObjAddr: 0x36E4, symBinAddr: 0x100006AF8, symSize: 0xC0 }
  - { offsetInCU: 0x15FE0, offset: 0x15FE0, size: 0x8, addend: 0x0, symName: __ZNSt3__16vectorIiNS_9allocatorIiEEEC1ERKS3_, symObjAddr: 0x37A4, symBinAddr: 0x100006BB8, symSize: 0x34 }
  - { offsetInCU: 0x1601B, offset: 0x1601B, size: 0x8, addend: 0x0, symName: __ZNSt3__16vectorIiNS_9allocatorIiEEEC2ERKS3_, symObjAddr: 0x37D8, symBinAddr: 0x100006BEC, symSize: 0x94 }
  - { offsetInCU: 0x16060, offset: 0x16060, size: 0x8, addend: 0x0, symName: __ZNSt3__116allocator_traitsINS_9allocatorIiEEE37select_on_container_copy_constructionB8ue170006IS2_vvEES2_RKS2_, symObjAddr: 0x386C, symBinAddr: 0x100006C80, symSize: 0x10 }
  - { offsetInCU: 0x1608F, offset: 0x1608F, size: 0x8, addend: 0x0, symName: __ZNKSt3__16vectorIiNS_9allocatorIiEEE7__allocB8ue170006Ev, symObjAddr: 0x387C, symBinAddr: 0x100006C90, symSize: 0x28 }
  - { offsetInCU: 0x160BB, offset: 0x160BB, size: 0x8, addend: 0x0, symName: __ZNSt3__117__compressed_pairIPiNS_9allocatorIiEEEC1B8ue170006IDnS3_EEOT_OT0_, symObjAddr: 0x38A4, symBinAddr: 0x100006CB8, symSize: 0x3C }
  - { offsetInCU: 0x16113, offset: 0x16113, size: 0x8, addend: 0x0, symName: __ZNSt3__16vectorIiNS_9allocatorIiEEE16__init_with_sizeB8ue170006IPiS5_EEvT_T0_m, symObjAddr: 0x38E0, symBinAddr: 0x100006CF4, symSize: 0xB8 }
  - { offsetInCU: 0x16187, offset: 0x16187, size: 0x8, addend: 0x0, symName: __ZNKSt3__16vectorIiNS_9allocatorIiEEE4sizeB8ue170006Ev, symObjAddr: 0x3998, symBinAddr: 0x100006DAC, symSize: 0x28 }
  - { offsetInCU: 0x161AD, offset: 0x161AD, size: 0x8, addend: 0x0, symName: __ZNKSt3__117__compressed_pairIPiNS_9allocatorIiEEE6secondB8ue170006Ev, symObjAddr: 0x39C0, symBinAddr: 0x100006DD4, symSize: 0x24 }
  - { offsetInCU: 0x161D3, offset: 0x161D3, size: 0x8, addend: 0x0, symName: __ZNKSt3__122__compressed_pair_elemINS_9allocatorIiEELi1ELb1EE5__getB8ue170006Ev, symObjAddr: 0x39E4, symBinAddr: 0x100006DF8, symSize: 0x14 }
  - { offsetInCU: 0x161F9, offset: 0x161F9, size: 0x8, addend: 0x0, symName: __ZNSt3__117__compressed_pairIPiNS_9allocatorIiEEEC2B8ue170006IDnS3_EEOT_OT0_, symObjAddr: 0x39F8, symBinAddr: 0x100006E0C, symSize: 0x44 }
  - { offsetInCU: 0x16251, offset: 0x16251, size: 0x8, addend: 0x0, symName: __ZNSt3__122__compressed_pair_elemINS_9allocatorIiEELi1ELb1EEC2B8ue170006IS2_vEEOT_, symObjAddr: 0x3A3C, symBinAddr: 0x100006E50, symSize: 0x18 }
  - { offsetInCU: 0x16293, offset: 0x16293, size: 0x8, addend: 0x0, symName: __ZNSt3__16vectorIiNS_9allocatorIiEEE16__destroy_vectorC1B8ue170006ERS3_, symObjAddr: 0x3A94, symBinAddr: 0x100006EA8, symSize: 0x34 }
  - { offsetInCU: 0x162CC, offset: 0x162CC, size: 0x8, addend: 0x0, symName: __ZNSt3__16vectorIiNS_9allocatorIiEEE11__vallocateB8ue170006Em, symObjAddr: 0x3AC8, symBinAddr: 0x100006EDC, symSize: 0xAC }
  - { offsetInCU: 0x16310, offset: 0x16310, size: 0x8, addend: 0x0, symName: __ZNSt3__16vectorIiNS_9allocatorIiEEE18__construct_at_endIPiS5_EEvT_T0_m, symObjAddr: 0x3B74, symBinAddr: 0x100006F88, symSize: 0x8C }
  - { offsetInCU: 0x16386, offset: 0x16386, size: 0x8, addend: 0x0, symName: __ZNSt3__128__exception_guard_exceptionsINS_6vectorIiNS_9allocatorIiEEE16__destroy_vectorEE10__completeB8ue170006Ev, symObjAddr: 0x3C00, symBinAddr: 0x100007014, symSize: 0x1C }
  - { offsetInCU: 0x163AC, offset: 0x163AC, size: 0x8, addend: 0x0, symName: __ZNSt3__128__exception_guard_exceptionsINS_6vectorIiNS_9allocatorIiEEE16__destroy_vectorEED1B8ue170006Ev, symObjAddr: 0x3C1C, symBinAddr: 0x100007030, symSize: 0x2C }
  - { offsetInCU: 0x163D6, offset: 0x163D6, size: 0x8, addend: 0x0, symName: __ZNSt3__128__exception_guard_exceptionsINS_6vectorIiNS_9allocatorIiEEE16__destroy_vectorEEC1B8ue170006ES5_, symObjAddr: 0x3C48, symBinAddr: 0x10000705C, symSize: 0x34 }
  - { offsetInCU: 0x1640E, offset: 0x1640E, size: 0x8, addend: 0x0, symName: __ZNSt3__128__exception_guard_exceptionsINS_6vectorIiNS_9allocatorIiEEE16__destroy_vectorEEC2B8ue170006ES5_, symObjAddr: 0x3C7C, symBinAddr: 0x100007090, symSize: 0x24 }
  - { offsetInCU: 0x16446, offset: 0x16446, size: 0x8, addend: 0x0, symName: __ZNSt3__16vectorIiNS_9allocatorIiEEE16__destroy_vectorC2B8ue170006ERS3_, symObjAddr: 0x3CA0, symBinAddr: 0x1000070B4, symSize: 0x20 }
  - { offsetInCU: 0x1647F, offset: 0x1647F, size: 0x8, addend: 0x0, symName: __ZNKSt3__16vectorIiNS_9allocatorIiEEE8max_sizeEv, symObjAddr: 0x3CC0, symBinAddr: 0x1000070D4, symSize: 0x60 }
  - { offsetInCU: 0x164A7, offset: 0x164A7, size: 0x8, addend: 0x0, symName: __ZNKSt3__16vectorIiNS_9allocatorIiEEE20__throw_length_errorB8ue170006Ev, symObjAddr: 0x3D20, symBinAddr: 0x100007134, symSize: 0x1C }
  - { offsetInCU: 0x164CD, offset: 0x164CD, size: 0x8, addend: 0x0, symName: __ZNSt3__16vectorIiNS_9allocatorIiEEE7__allocB8ue170006Ev, symObjAddr: 0x3D7C, symBinAddr: 0x100007190, symSize: 0x28 }
  - { offsetInCU: 0x164F3, offset: 0x164F3, size: 0x8, addend: 0x0, symName: __ZNSt3__16vectorIiNS_9allocatorIiEEE9__end_capB8ue170006Ev, symObjAddr: 0x3DA4, symBinAddr: 0x1000071B8, symSize: 0x28 }
  - { offsetInCU: 0x16519, offset: 0x16519, size: 0x8, addend: 0x0, symName: __ZNKSt3__16vectorIiNS_9allocatorIiEEE14__annotate_newB8ue170006Em, symObjAddr: 0x3DCC, symBinAddr: 0x1000071E0, symSize: 0xAC }
  - { offsetInCU: 0x1654E, offset: 0x1654E, size: 0x8, addend: 0x0, symName: __ZNSt3__116allocator_traitsINS_9allocatorIiEEE8max_sizeB8ue170006IS2_vEEmRKS2_, symObjAddr: 0x3E78, symBinAddr: 0x10000728C, symSize: 0x24 }
  - { offsetInCU: 0x1657C, offset: 0x1657C, size: 0x8, addend: 0x0, symName: __ZNKSt3__19allocatorIiE8max_sizeB8ue170006Ev, symObjAddr: 0x3E9C, symBinAddr: 0x1000072B0, symSize: 0x14 }
  - { offsetInCU: 0x165A2, offset: 0x165A2, size: 0x8, addend: 0x0, symName: __ZNSt3__19allocatorIiE8allocateB8ue170006Em, symObjAddr: 0x3EB0, symBinAddr: 0x1000072C4, symSize: 0x58 }
  - { offsetInCU: 0x165D6, offset: 0x165D6, size: 0x8, addend: 0x0, symName: __ZNSt3__117__compressed_pairIPiNS_9allocatorIiEEE6secondB8ue170006Ev, symObjAddr: 0x3F08, symBinAddr: 0x10000731C, symSize: 0x24 }
  - { offsetInCU: 0x165FC, offset: 0x165FC, size: 0x8, addend: 0x0, symName: __ZNSt3__122__compressed_pair_elemINS_9allocatorIiEELi1ELb1EE5__getB8ue170006Ev, symObjAddr: 0x3F2C, symBinAddr: 0x100007340, symSize: 0x14 }
  - { offsetInCU: 0x16622, offset: 0x16622, size: 0x8, addend: 0x0, symName: __ZNSt3__117__compressed_pairIPiNS_9allocatorIiEEE5firstB8ue170006Ev, symObjAddr: 0x3F40, symBinAddr: 0x100007354, symSize: 0x24 }
  - { offsetInCU: 0x16648, offset: 0x16648, size: 0x8, addend: 0x0, symName: __ZNSt3__122__compressed_pair_elemIPiLi0ELb0EE5__getB8ue170006Ev, symObjAddr: 0x3F64, symBinAddr: 0x100007378, symSize: 0x14 }
  - { offsetInCU: 0x1666E, offset: 0x1666E, size: 0x8, addend: 0x0, symName: __ZNKSt3__16vectorIiNS_9allocatorIiEEE31__annotate_contiguous_containerB8ue170006EPKvS5_S5_S5_, symObjAddr: 0x3F78, symBinAddr: 0x10000738C, symSize: 0x20 }
  - { offsetInCU: 0x166C0, offset: 0x166C0, size: 0x8, addend: 0x0, symName: __ZNKSt3__16vectorIiNS_9allocatorIiEEE4dataB8ue170006Ev, symObjAddr: 0x3F98, symBinAddr: 0x1000073AC, symSize: 0x28 }
  - { offsetInCU: 0x166E6, offset: 0x166E6, size: 0x8, addend: 0x0, symName: __ZNKSt3__16vectorIiNS_9allocatorIiEEE8capacityB8ue170006Ev, symObjAddr: 0x3FC0, symBinAddr: 0x1000073D4, symSize: 0x40 }
  - { offsetInCU: 0x1670C, offset: 0x1670C, size: 0x8, addend: 0x0, symName: __ZNKSt3__16vectorIiNS_9allocatorIiEEE9__end_capB8ue170006Ev, symObjAddr: 0x4014, symBinAddr: 0x100007428, symSize: 0x28 }
  - { offsetInCU: 0x16732, offset: 0x16732, size: 0x8, addend: 0x0, symName: __ZNKSt3__117__compressed_pairIPiNS_9allocatorIiEEE5firstB8ue170006Ev, symObjAddr: 0x403C, symBinAddr: 0x100007450, symSize: 0x24 }
  - { offsetInCU: 0x16758, offset: 0x16758, size: 0x8, addend: 0x0, symName: __ZNKSt3__122__compressed_pair_elemIPiLi0ELb0EE5__getB8ue170006Ev, symObjAddr: 0x4060, symBinAddr: 0x100007474, symSize: 0x14 }
  - { offsetInCU: 0x16797, offset: 0x16797, size: 0x8, addend: 0x0, symName: __ZNSt3__16vectorIiNS_9allocatorIiEEE21_ConstructTransactionC1B8ue170006ERS3_m, symObjAddr: 0x4074, symBinAddr: 0x100007488, symSize: 0x3C }
  - { offsetInCU: 0x167DF, offset: 0x167DF, size: 0x8, addend: 0x0, symName: __ZNSt3__16vectorIiNS_9allocatorIiEEE21_ConstructTransactionD1B8ue170006Ev, symObjAddr: 0x4130, symBinAddr: 0x100007544, symSize: 0x2C }
  - { offsetInCU: 0x16809, offset: 0x16809, size: 0x8, addend: 0x0, symName: __ZNSt3__16vectorIiNS_9allocatorIiEEE21_ConstructTransactionC2B8ue170006ERS3_m, symObjAddr: 0x415C, symBinAddr: 0x100007570, symSize: 0x44 }
  - { offsetInCU: 0x16871, offset: 0x16871, size: 0x8, addend: 0x0, symName: __ZNSt3__14pairIPiS1_EC1B8ue170006IS1_S1_LPv0EEEOT_OT0_, symObjAddr: 0x42D0, symBinAddr: 0x1000076E4, symSize: 0x3C }
  - { offsetInCU: 0x168CF, offset: 0x168CF, size: 0x8, addend: 0x0, symName: __ZNSt3__14pairIPiS1_EC2B8ue170006IS1_S1_LPv0EEEOT_OT0_, symObjAddr: 0x430C, symBinAddr: 0x100007720, symSize: 0x34 }
  - { offsetInCU: 0x16937, offset: 0x16937, size: 0x8, addend: 0x0, symName: __ZNKSt3__114__copy_trivialclB8ue170006IiiLi0EEENS_4pairIPT_PT0_EES4_S4_S6_, symObjAddr: 0x44BC, symBinAddr: 0x1000078D0, symSize: 0x48 }
  - { offsetInCU: 0x1699F, offset: 0x1699F, size: 0x8, addend: 0x0, symName: __ZNSt3__14pairIPiS1_EC1B8ue170006IRS1_S1_LPv0EEEOT_OT0_, symObjAddr: 0x464C, symBinAddr: 0x100007A60, symSize: 0x3C }
  - { offsetInCU: 0x169FD, offset: 0x169FD, size: 0x8, addend: 0x0, symName: __ZNSt3__14pairIPiS1_EC2B8ue170006IRS1_S1_LPv0EEEOT_OT0_, symObjAddr: 0x4688, symBinAddr: 0x100007A9C, symSize: 0x34 }
  - { offsetInCU: 0x16A5B, offset: 0x16A5B, size: 0x8, addend: 0x0, symName: __ZNSt3__118__unwrap_iter_implIPiLb1EE8__unwrapB8ue170006ES1_, symObjAddr: 0x46BC, symBinAddr: 0x100007AD0, symSize: 0x24 }
  - { offsetInCU: 0x16A7E, offset: 0x16A7E, size: 0x8, addend: 0x0, symName: __ZNSt3__118__unwrap_iter_implIPiLb1EE8__rewrapB8ue170006ES1_S1_, symObjAddr: 0x46E0, symBinAddr: 0x100007AF4, symSize: 0x50 }
  - { offsetInCU: 0x16AAF, offset: 0x16AAF, size: 0x8, addend: 0x0, symName: __ZNSt3__16vectorIiNS_9allocatorIiEEE21_ConstructTransactionD2B8ue170006Ev, symObjAddr: 0x4730, symBinAddr: 0x100007B44, symSize: 0x20 }
  - { offsetInCU: 0x16AD9, offset: 0x16AD9, size: 0x8, addend: 0x0, symName: __ZNSt3__128__exception_guard_exceptionsINS_6vectorIiNS_9allocatorIiEEE16__destroy_vectorEED2B8ue170006Ev, symObjAddr: 0x4750, symBinAddr: 0x100007B64, symSize: 0x50 }
  - { offsetInCU: 0x16B03, offset: 0x16B03, size: 0x8, addend: 0x0, symName: __ZNSt3__16vectorIiNS_9allocatorIiEEE16__destroy_vectorclB8ue170006Ev, symObjAddr: 0x47A0, symBinAddr: 0x100007BB4, symSize: 0x90 }
  - { offsetInCU: 0x16B29, offset: 0x16B29, size: 0x8, addend: 0x0, symName: __ZNSt3__16vectorIiNS_9allocatorIiEEE7__clearB8ue170006Ev, symObjAddr: 0x4830, symBinAddr: 0x100007C44, symSize: 0x28 }
  - { offsetInCU: 0x16B4F, offset: 0x16B4F, size: 0x8, addend: 0x0, symName: __ZNKSt3__16vectorIiNS_9allocatorIiEEE17__annotate_deleteB8ue170006Ev, symObjAddr: 0x4858, symBinAddr: 0x100007C6C, symSize: 0xB8 }
  - { offsetInCU: 0x16B75, offset: 0x16B75, size: 0x8, addend: 0x0, symName: __ZNSt3__116allocator_traitsINS_9allocatorIiEEE10deallocateB8ue170006ERS2_Pim, symObjAddr: 0x4910, symBinAddr: 0x100007D24, symSize: 0x34 }
  - { offsetInCU: 0x16BB7, offset: 0x16BB7, size: 0x8, addend: 0x0, symName: __ZNSt3__16vectorIiNS_9allocatorIiEEE22__base_destruct_at_endB8ue170006EPi, symObjAddr: 0x4944, symBinAddr: 0x100007D58, symSize: 0x8C }
  - { offsetInCU: 0x16BFB, offset: 0x16BFB, size: 0x8, addend: 0x0, symName: __ZNSt3__116allocator_traitsINS_9allocatorIiEEE7destroyB8ue170006IivEEvRS2_PT_, symObjAddr: 0x49D0, symBinAddr: 0x100007DE4, symSize: 0x2C }
  - { offsetInCU: 0x16C38, offset: 0x16C38, size: 0x8, addend: 0x0, symName: __ZNSt3__19allocatorIiE7destroyB8ue170006EPi, symObjAddr: 0x49FC, symBinAddr: 0x100007E10, symSize: 0x14 }
  - { offsetInCU: 0x16C6C, offset: 0x16C6C, size: 0x8, addend: 0x0, symName: __ZNSt3__19allocatorIiE10deallocateB8ue170006EPim, symObjAddr: 0x4A10, symBinAddr: 0x100007E24, symSize: 0x40 }
  - { offsetInCU: 0x16CAE, offset: 0x16CAE, size: 0x8, addend: 0x0, symName: __ZNSt3__117__compressed_pairIP8customerNS_9allocatorIS1_EEE6secondB8ue170006Ev, symObjAddr: 0x4A50, symBinAddr: 0x100007E64, symSize: 0x24 }
  - { offsetInCU: 0x16CD4, offset: 0x16CD4, size: 0x8, addend: 0x0, symName: __ZNSt3__122__compressed_pair_elemINS_9allocatorI8customerEELi1ELb1EE5__getB8ue170006Ev, symObjAddr: 0x4A74, symBinAddr: 0x100007E88, symSize: 0x14 }
  - { offsetInCU: 0x16CFA, offset: 0x16CFA, size: 0x8, addend: 0x0, symName: __ZNSt3__16vectorI8customerNS_9allocatorIS1_EEE21_ConstructTransactionD2B8ue170006Ev, symObjAddr: 0x4A88, symBinAddr: 0x100007E9C, symSize: 0x20 }
  - { offsetInCU: 0x16D24, offset: 0x16D24, size: 0x8, addend: 0x0, symName: __ZNKSt3__16vectorI8customerNS_9allocatorIS1_EEE11__recommendB8ue170006Em, symObjAddr: 0x4AA8, symBinAddr: 0x100007EBC, symSize: 0xB4 }
  - { offsetInCU: 0x16D79, offset: 0x16D79, size: 0x8, addend: 0x0, symName: __ZNKSt3__16vectorI8customerNS_9allocatorIS1_EEE4sizeB8ue170006Ev, symObjAddr: 0x4B5C, symBinAddr: 0x100007F70, symSize: 0x28 }
  - { offsetInCU: 0x16D9F, offset: 0x16D9F, size: 0x8, addend: 0x0, symName: __ZNSt3__114__split_bufferI8customerRNS_9allocatorIS1_EEEC1EmmS4_, symObjAddr: 0x4B84, symBinAddr: 0x100007F98, symSize: 0x44 }
  - { offsetInCU: 0x16DF5, offset: 0x16DF5, size: 0x8, addend: 0x0, symName: __ZNSt3__114__split_bufferI8customerRNS_9allocatorIS1_EEED1Ev, symObjAddr: 0x4CD8, symBinAddr: 0x1000080EC, symSize: 0x2C }
  - { offsetInCU: 0x16E21, offset: 0x16E21, size: 0x8, addend: 0x0, symName: __ZNKSt3__16vectorI8customerNS_9allocatorIS1_EEE8max_sizeEv, symObjAddr: 0x4D04, symBinAddr: 0x100008118, symSize: 0x60 }
  - { offsetInCU: 0x16E49, offset: 0x16E49, size: 0x8, addend: 0x0, symName: __ZNKSt3__16vectorI8customerNS_9allocatorIS1_EEE20__throw_length_errorB8ue170006Ev, symObjAddr: 0x4D64, symBinAddr: 0x100008178, symSize: 0x1C }
  - { offsetInCU: 0x16E6F, offset: 0x16E6F, size: 0x8, addend: 0x0, symName: __ZNKSt3__16vectorI8customerNS_9allocatorIS1_EEE8capacityB8ue170006Ev, symObjAddr: 0x4D80, symBinAddr: 0x100008194, symSize: 0x40 }
  - { offsetInCU: 0x16E9F, offset: 0x16E9F, size: 0x8, addend: 0x0, symName: __ZNSt3__116allocator_traitsINS_9allocatorI8customerEEE8max_sizeB8ue170006IS3_vEEmRKS3_, symObjAddr: 0x4DC0, symBinAddr: 0x1000081D4, symSize: 0x24 }
  - { offsetInCU: 0x16ECD, offset: 0x16ECD, size: 0x8, addend: 0x0, symName: __ZNKSt3__16vectorI8customerNS_9allocatorIS1_EEE7__allocB8ue170006Ev, symObjAddr: 0x4DE4, symBinAddr: 0x1000081F8, symSize: 0x28 }
  - { offsetInCU: 0x16EF3, offset: 0x16EF3, size: 0x8, addend: 0x0, symName: __ZNKSt3__19allocatorI8customerE8max_sizeB8ue170006Ev, symObjAddr: 0x4E0C, symBinAddr: 0x100008220, symSize: 0x18 }
  - { offsetInCU: 0x16F19, offset: 0x16F19, size: 0x8, addend: 0x0, symName: __ZNKSt3__117__compressed_pairIP8customerNS_9allocatorIS1_EEE6secondB8ue170006Ev, symObjAddr: 0x4E24, symBinAddr: 0x100008238, symSize: 0x24 }
  - { offsetInCU: 0x16F3F, offset: 0x16F3F, size: 0x8, addend: 0x0, symName: __ZNKSt3__122__compressed_pair_elemINS_9allocatorI8customerEELi1ELb1EE5__getB8ue170006Ev, symObjAddr: 0x4E48, symBinAddr: 0x10000825C, symSize: 0x14 }
  - { offsetInCU: 0x16F65, offset: 0x16F65, size: 0x8, addend: 0x0, symName: __ZNKSt3__16vectorI8customerNS_9allocatorIS1_EEE9__end_capB8ue170006Ev, symObjAddr: 0x4E5C, symBinAddr: 0x100008270, symSize: 0x28 }
  - { offsetInCU: 0x16F8B, offset: 0x16F8B, size: 0x8, addend: 0x0, symName: __ZNKSt3__117__compressed_pairIP8customerNS_9allocatorIS1_EEE5firstB8ue170006Ev, symObjAddr: 0x4E84, symBinAddr: 0x100008298, symSize: 0x24 }
  - { offsetInCU: 0x16FB1, offset: 0x16FB1, size: 0x8, addend: 0x0, symName: __ZNKSt3__122__compressed_pair_elemIP8customerLi0ELb0EE5__getB8ue170006Ev, symObjAddr: 0x4EA8, symBinAddr: 0x1000082BC, symSize: 0x14 }
  - { offsetInCU: 0x16FD7, offset: 0x16FD7, size: 0x8, addend: 0x0, symName: __ZNSt3__114__split_bufferI8customerRNS_9allocatorIS1_EEEC2EmmS4_, symObjAddr: 0x4EBC, symBinAddr: 0x1000082D0, symSize: 0xE0 }
  - { offsetInCU: 0x1704A, offset: 0x1704A, size: 0x8, addend: 0x0, symName: __ZNSt3__117__compressed_pairIP8customerRNS_9allocatorIS1_EEEC1B8ue170006IDnS5_EEOT_OT0_, symObjAddr: 0x4F9C, symBinAddr: 0x1000083B0, symSize: 0x3C }
  - { offsetInCU: 0x170A2, offset: 0x170A2, size: 0x8, addend: 0x0, symName: __ZNSt3__114__split_bufferI8customerRNS_9allocatorIS1_EEE7__allocB8ue170006Ev, symObjAddr: 0x5018, symBinAddr: 0x10000842C, symSize: 0x28 }
  - { offsetInCU: 0x170C8, offset: 0x170C8, size: 0x8, addend: 0x0, symName: __ZNSt3__114__split_bufferI8customerRNS_9allocatorIS1_EEE9__end_capB8ue170006Ev, symObjAddr: 0x5040, symBinAddr: 0x100008454, symSize: 0x28 }
  - { offsetInCU: 0x170EE, offset: 0x170EE, size: 0x8, addend: 0x0, symName: __ZNSt3__117__compressed_pairIP8customerRNS_9allocatorIS1_EEEC2B8ue170006IDnS5_EEOT_OT0_, symObjAddr: 0x5068, symBinAddr: 0x10000847C, symSize: 0x48 }
  - { offsetInCU: 0x17146, offset: 0x17146, size: 0x8, addend: 0x0, symName: __ZNSt3__122__compressed_pair_elemIRNS_9allocatorI8customerEELi1ELb0EEC2B8ue170006IS4_vEEOT_, symObjAddr: 0x50B0, symBinAddr: 0x1000084C4, symSize: 0x20 }
  - { offsetInCU: 0x17188, offset: 0x17188, size: 0x8, addend: 0x0, symName: __ZNSt3__19allocatorI8customerE8allocateB8ue170006Em, symObjAddr: 0x50D0, symBinAddr: 0x1000084E4, symSize: 0x5C }
  - { offsetInCU: 0x171BC, offset: 0x171BC, size: 0x8, addend: 0x0, symName: __ZNSt3__117__compressed_pairIP8customerRNS_9allocatorIS1_EEE6secondB8ue170006Ev, symObjAddr: 0x512C, symBinAddr: 0x100008540, symSize: 0x28 }
  - { offsetInCU: 0x171E2, offset: 0x171E2, size: 0x8, addend: 0x0, symName: __ZNSt3__122__compressed_pair_elemIRNS_9allocatorI8customerEELi1ELb0EE5__getB8ue170006Ev, symObjAddr: 0x5154, symBinAddr: 0x100008568, symSize: 0x18 }
  - { offsetInCU: 0x17208, offset: 0x17208, size: 0x8, addend: 0x0, symName: __ZNSt3__117__compressed_pairIP8customerRNS_9allocatorIS1_EEE5firstB8ue170006Ev, symObjAddr: 0x516C, symBinAddr: 0x100008580, symSize: 0x24 }
  - { offsetInCU: 0x1722E, offset: 0x1722E, size: 0x8, addend: 0x0, symName: __ZNKSt3__16vectorI8customerNS_9allocatorIS1_EEE17__annotate_deleteB8ue170006Ev, symObjAddr: 0x5190, symBinAddr: 0x1000085A4, symSize: 0xD4 }
  - { offsetInCU: 0x17254, offset: 0x17254, size: 0x8, addend: 0x0, symName: __ZNSt3__116reverse_iteratorIP8customerEC1B8ue170006ES2_, symObjAddr: 0x5390, symBinAddr: 0x1000087A4, symSize: 0x34 }
  - { offsetInCU: 0x1728C, offset: 0x1728C, size: 0x8, addend: 0x0, symName: __ZNKSt3__116reverse_iteratorIP8customerE4baseB8ue170006Ev, symObjAddr: 0x53C4, symBinAddr: 0x1000087D8, symSize: 0x18 }
  - { offsetInCU: 0x172B2, offset: 0x172B2, size: 0x8, addend: 0x0, symName: __ZNKSt3__16vectorI8customerNS_9allocatorIS1_EEE14__annotate_newB8ue170006Em, symObjAddr: 0x5418, symBinAddr: 0x10000882C, symSize: 0xC8 }
  - { offsetInCU: 0x172E7, offset: 0x172E7, size: 0x8, addend: 0x0, symName: __ZNKSt3__16vectorI8customerNS_9allocatorIS1_EEE31__annotate_contiguous_containerB8ue170006EPKvS6_S6_S6_, symObjAddr: 0x54E0, symBinAddr: 0x1000088F4, symSize: 0x20 }
  - { offsetInCU: 0x17339, offset: 0x17339, size: 0x8, addend: 0x0, symName: __ZNKSt3__16vectorI8customerNS_9allocatorIS1_EEE4dataB8ue170006Ev, symObjAddr: 0x5500, symBinAddr: 0x100008914, symSize: 0x28 }
  - { offsetInCU: 0x1735F, offset: 0x1735F, size: 0x8, addend: 0x0, symName: __ZNSt3__129_AllocatorDestroyRangeReverseINS_9allocatorI8customerEENS_16reverse_iteratorIPS2_EEEC1B8ue170006ERS3_RS6_S9_, symObjAddr: 0x5574, symBinAddr: 0x100008988, symSize: 0x44 }
  - { offsetInCU: 0x173BC, offset: 0x173BC, size: 0x8, addend: 0x0, symName: __ZNSt3__116allocator_traitsINS_9allocatorI8customerEEE9constructB8ue170006IS2_JS2_EvEEvRS3_PT_DpOT0_, symObjAddr: 0x5600, symBinAddr: 0x100008A14, symSize: 0x34 }
  - { offsetInCU: 0x17413, offset: 0x17413, size: 0x8, addend: 0x0, symName: __ZNKSt3__116reverse_iteratorIP8customerEdeB8ue170006Ev, symObjAddr: 0x5658, symBinAddr: 0x100008A6C, symSize: 0x28 }
  - { offsetInCU: 0x17447, offset: 0x17447, size: 0x8, addend: 0x0, symName: __ZNSt3__116reverse_iteratorIP8customerEppB8ue170006Ev, symObjAddr: 0x5680, symBinAddr: 0x100008A94, symSize: 0x20 }
  - { offsetInCU: 0x1746D, offset: 0x1746D, size: 0x8, addend: 0x0, symName: __ZNSt3__128__exception_guard_exceptionsINS_29_AllocatorDestroyRangeReverseINS_9allocatorI8customerEENS_16reverse_iteratorIPS3_EEEEE10__completeB8ue170006Ev, symObjAddr: 0x56A0, symBinAddr: 0x100008AB4, symSize: 0x1C }
  - { offsetInCU: 0x17493, offset: 0x17493, size: 0x8, addend: 0x0, symName: __ZNSt3__128__exception_guard_exceptionsINS_29_AllocatorDestroyRangeReverseINS_9allocatorI8customerEENS_16reverse_iteratorIPS3_EEEEED1B8ue170006Ev, symObjAddr: 0x56BC, symBinAddr: 0x100008AD0, symSize: 0x2C }
  - { offsetInCU: 0x174BD, offset: 0x174BD, size: 0x8, addend: 0x0, symName: __ZNSt3__128__exception_guard_exceptionsINS_29_AllocatorDestroyRangeReverseINS_9allocatorI8customerEENS_16reverse_iteratorIPS3_EEEEEC1B8ue170006ES8_, symObjAddr: 0x56E8, symBinAddr: 0x100008AFC, symSize: 0x34 }
  - { offsetInCU: 0x174F6, offset: 0x174F6, size: 0x8, addend: 0x0, symName: __ZNSt3__128__exception_guard_exceptionsINS_29_AllocatorDestroyRangeReverseINS_9allocatorI8customerEENS_16reverse_iteratorIPS3_EEEEEC2B8ue170006ES8_, symObjAddr: 0x571C, symBinAddr: 0x100008B30, symSize: 0x30 }
  - { offsetInCU: 0x1752F, offset: 0x1752F, size: 0x8, addend: 0x0, symName: __ZNSt3__129_AllocatorDestroyRangeReverseINS_9allocatorI8customerEENS_16reverse_iteratorIPS2_EEEC2B8ue170006ERS3_RS6_S9_, symObjAddr: 0x574C, symBinAddr: 0x100008B60, symSize: 0x38 }
  - { offsetInCU: 0x17586, offset: 0x17586, size: 0x8, addend: 0x0, symName: __ZNSt3__19allocatorI8customerE9constructB8ue170006IS1_JS1_EEEvPT_DpOT0_, symObjAddr: 0x5784, symBinAddr: 0x100008B98, symSize: 0x30 }
  - { offsetInCU: 0x175DC, offset: 0x175DC, size: 0x8, addend: 0x0, symName: __ZN8customerC1EOS_, symObjAddr: 0x57B4, symBinAddr: 0x100008BC8, symSize: 0x34 }
  - { offsetInCU: 0x17611, offset: 0x17611, size: 0x8, addend: 0x0, symName: __ZN8customerC2EOS_, symObjAddr: 0x57E8, symBinAddr: 0x100008BFC, symSize: 0x70 }
  - { offsetInCU: 0x17646, offset: 0x17646, size: 0x8, addend: 0x0, symName: __ZNSt3__16vectorIiNS_9allocatorIiEEEC1B8ue170006EOS3_, symObjAddr: 0x5858, symBinAddr: 0x100008C6C, symSize: 0x34 }
  - { offsetInCU: 0x17681, offset: 0x17681, size: 0x8, addend: 0x0, symName: __ZNSt3__16vectorIiNS_9allocatorIiEEEC2B8ue170006EOS3_, symObjAddr: 0x588C, symBinAddr: 0x100008CA0, symSize: 0xC4 }
  - { offsetInCU: 0x176C1, offset: 0x176C1, size: 0x8, addend: 0x0, symName: __ZNSt3__119__to_address_helperINS_16reverse_iteratorIP8customerEEvE6__callB8ue170006ERKS4_, symObjAddr: 0x5950, symBinAddr: 0x100008D64, symSize: 0x38 }
  - { offsetInCU: 0x176E4, offset: 0x176E4, size: 0x8, addend: 0x0, symName: __ZNKSt3__116reverse_iteratorIP8customerEptB8ue170006Ev, symObjAddr: 0x5988, symBinAddr: 0x100008D9C, symSize: 0x24 }
  - { offsetInCU: 0x1770A, offset: 0x1770A, size: 0x8, addend: 0x0, symName: __ZNSt3__128__exception_guard_exceptionsINS_29_AllocatorDestroyRangeReverseINS_9allocatorI8customerEENS_16reverse_iteratorIPS3_EEEEED2B8ue170006Ev, symObjAddr: 0x59AC, symBinAddr: 0x100008DC0, symSize: 0x50 }
  - { offsetInCU: 0x17734, offset: 0x17734, size: 0x8, addend: 0x0, symName: __ZNKSt3__129_AllocatorDestroyRangeReverseINS_9allocatorI8customerEENS_16reverse_iteratorIPS2_EEEclB8ue170006Ev, symObjAddr: 0x59FC, symBinAddr: 0x100008E10, symSize: 0xB4 }
  - { offsetInCU: 0x1775B, offset: 0x1775B, size: 0x8, addend: 0x0, symName: __ZNSt3__116reverse_iteratorINS0_IP8customerEEEC1B8ue170006ES3_, symObjAddr: 0x5B20, symBinAddr: 0x100008F34, symSize: 0x3C }
  - { offsetInCU: 0x17793, offset: 0x17793, size: 0x8, addend: 0x0, symName: __ZNSt3__116allocator_traitsINS_9allocatorI8customerEEE7destroyB8ue170006IS2_vEEvRS3_PT_, symObjAddr: 0x5BBC, symBinAddr: 0x100008FD0, symSize: 0x2C }
  - { offsetInCU: 0x177D0, offset: 0x177D0, size: 0x8, addend: 0x0, symName: __ZNSt3__116reverse_iteratorINS0_IP8customerEEEppB8ue170006Ev, symObjAddr: 0x5C0C, symBinAddr: 0x100009020, symSize: 0x30 }
  - { offsetInCU: 0x177F6, offset: 0x177F6, size: 0x8, addend: 0x0, symName: __ZNKSt3__116reverse_iteratorINS0_IP8customerEEE4baseB8ue170006Ev, symObjAddr: 0x5C3C, symBinAddr: 0x100009050, symSize: 0x24 }
  - { offsetInCU: 0x1781C, offset: 0x1781C, size: 0x8, addend: 0x0, symName: __ZNSt3__19allocatorI8customerE7destroyB8ue170006EPS1_, symObjAddr: 0x5C60, symBinAddr: 0x100009074, symSize: 0x28 }
  - { offsetInCU: 0x17855, offset: 0x17855, size: 0x8, addend: 0x0, symName: __ZNSt3__119__to_address_helperINS_16reverse_iteratorINS1_IP8customerEEEEvE6__callB8ue170006ERKS5_, symObjAddr: 0x5C88, symBinAddr: 0x10000909C, symSize: 0x38 }
  - { offsetInCU: 0x17878, offset: 0x17878, size: 0x8, addend: 0x0, symName: __ZNKSt3__116reverse_iteratorINS0_IP8customerEEEptB8ue170006Ev, symObjAddr: 0x5CC0, symBinAddr: 0x1000090D4, symSize: 0x24 }
  - { offsetInCU: 0x1789E, offset: 0x1789E, size: 0x8, addend: 0x0, symName: __ZNKSt3__116reverse_iteratorINS0_IP8customerEEEdeB8ue170006Ev, symObjAddr: 0x5CE4, symBinAddr: 0x1000090F8, symSize: 0x34 }
  - { offsetInCU: 0x178D2, offset: 0x178D2, size: 0x8, addend: 0x0, symName: __ZNSt3__116reverse_iteratorIP8customerEmmB8ue170006Ev, symObjAddr: 0x5D18, symBinAddr: 0x10000912C, symSize: 0x20 }
  - { offsetInCU: 0x178F8, offset: 0x178F8, size: 0x8, addend: 0x0, symName: __ZNSt3__116reverse_iteratorINS0_IP8customerEEEC2B8ue170006ES3_, symObjAddr: 0x5D38, symBinAddr: 0x10000914C, symSize: 0x2C }
  - { offsetInCU: 0x17930, offset: 0x17930, size: 0x8, addend: 0x0, symName: __ZNSt3__116reverse_iteratorIP8customerEC2B8ue170006ES2_, symObjAddr: 0x5D64, symBinAddr: 0x100009178, symSize: 0x28 }
  - { offsetInCU: 0x17968, offset: 0x17968, size: 0x8, addend: 0x0, symName: __ZNSt3__114__split_bufferI8customerRNS_9allocatorIS1_EEED2Ev, symObjAddr: 0x5D8C, symBinAddr: 0x1000091A0, symSize: 0x8C }
  - { offsetInCU: 0x17994, offset: 0x17994, size: 0x8, addend: 0x0, symName: __ZNSt3__114__split_bufferI8customerRNS_9allocatorIS1_EEE5clearB8ue170006Ev, symObjAddr: 0x5E18, symBinAddr: 0x10000922C, symSize: 0x28 }
  - { offsetInCU: 0x179BA, offset: 0x179BA, size: 0x8, addend: 0x0, symName: __ZNSt3__116allocator_traitsINS_9allocatorI8customerEEE10deallocateB8ue170006ERS3_PS2_m, symObjAddr: 0x5E40, symBinAddr: 0x100009254, symSize: 0x34 }
  - { offsetInCU: 0x179FC, offset: 0x179FC, size: 0x8, addend: 0x0, symName: __ZNKSt3__114__split_bufferI8customerRNS_9allocatorIS1_EEE8capacityB8ue170006Ev, symObjAddr: 0x5E74, symBinAddr: 0x100009288, symSize: 0x40 }
  - { offsetInCU: 0x17A22, offset: 0x17A22, size: 0x8, addend: 0x0, symName: __ZNSt3__114__split_bufferI8customerRNS_9allocatorIS1_EEE17__destruct_at_endB8ue170006EPS1_, symObjAddr: 0x5EB4, symBinAddr: 0x1000092C8, symSize: 0x2C }
  - { offsetInCU: 0x17A56, offset: 0x17A56, size: 0x8, addend: 0x0, symName: __ZNSt3__114__split_bufferI8customerRNS_9allocatorIS1_EEE17__destruct_at_endB8ue170006EPS1_NS_17integral_constantIbLb0EEE, symObjAddr: 0x5EE0, symBinAddr: 0x1000092F4, symSize: 0x80 }
  - { offsetInCU: 0x17A97, offset: 0x17A97, size: 0x8, addend: 0x0, symName: __ZNSt3__19allocatorI8customerE10deallocateB8ue170006EPS1_m, symObjAddr: 0x5F60, symBinAddr: 0x100009374, symSize: 0x44 }
  - { offsetInCU: 0x17AD9, offset: 0x17AD9, size: 0x8, addend: 0x0, symName: __ZNKSt3__114__split_bufferI8customerRNS_9allocatorIS1_EEE9__end_capB8ue170006Ev, symObjAddr: 0x5FA4, symBinAddr: 0x1000093B8, symSize: 0x28 }
  - { offsetInCU: 0x17AFF, offset: 0x17AFF, size: 0x8, addend: 0x0, symName: __ZNKSt3__117__compressed_pairIP8customerRNS_9allocatorIS1_EEE5firstB8ue170006Ev, symObjAddr: 0x5FCC, symBinAddr: 0x1000093E0, symSize: 0x24 }
  - { offsetInCU: 0x17B25, offset: 0x17B25, size: 0x8, addend: 0x0, symName: __ZN8customerD2Ev, symObjAddr: 0x5FF0, symBinAddr: 0x100009404, symSize: 0x48 }
  - { offsetInCU: 0x17B51, offset: 0x17B51, size: 0x8, addend: 0x0, symName: __ZNSt3__16vectorIiNS_9allocatorIiEEED1B8ue170006Ev, symObjAddr: 0x6038, symBinAddr: 0x10000944C, symSize: 0x2C }
  - { offsetInCU: 0x17B7B, offset: 0x17B7B, size: 0x8, addend: 0x0, symName: __ZNSt3__16vectorIiNS_9allocatorIiEEED2B8ue170006Ev, symObjAddr: 0x6064, symBinAddr: 0x100009478, symSize: 0x40 }
  - { offsetInCU: 0x17BA5, offset: 0x17BA5, size: 0x8, addend: 0x0, symName: __ZNSt3__16vectorI4roomNS_9allocatorIS1_EEE5beginB8ue170006Ev, symObjAddr: 0x60A4, symBinAddr: 0x1000094B8, symSize: 0x30 }
  - { offsetInCU: 0x17BCD, offset: 0x17BCD, size: 0x8, addend: 0x0, symName: __ZNSt3__16vectorI4roomNS_9allocatorIS1_EEE3endB8ue170006Ev, symObjAddr: 0x60D4, symBinAddr: 0x1000094E8, symSize: 0x30 }
  - { offsetInCU: 0x17BF5, offset: 0x17BF5, size: 0x8, addend: 0x0, symName: __ZNKSt3__111__wrap_iterIP4roomEdeB8ue170006Ev, symObjAddr: 0x6138, symBinAddr: 0x10000954C, symSize: 0x18 }
  - { offsetInCU: 0x17C1B, offset: 0x17C1B, size: 0x8, addend: 0x0, symName: __ZNK4room13getRoomNumberEv, symObjAddr: 0x6150, symBinAddr: 0x100009564, symSize: 0x18 }
  - { offsetInCU: 0x17C41, offset: 0x17C41, size: 0x8, addend: 0x0, symName: __ZN4room15getAvailabilityEv, symObjAddr: 0x6168, symBinAddr: 0x10000957C, symSize: 0x1C }
  - { offsetInCU: 0x17C67, offset: 0x17C67, size: 0x8, addend: 0x0, symName: __ZNSt3__16vectorI8customerNS_9allocatorIS1_EEE5beginB8ue170006Ev, symObjAddr: 0x6184, symBinAddr: 0x100009598, symSize: 0x30 }
  - { offsetInCU: 0x17C8F, offset: 0x17C8F, size: 0x8, addend: 0x0, symName: __ZNSt3__16vectorI8customerNS_9allocatorIS1_EEE3endB8ue170006Ev, symObjAddr: 0x61B4, symBinAddr: 0x1000095C8, symSize: 0x30 }
  - { offsetInCU: 0x17CB7, offset: 0x17CB7, size: 0x8, addend: 0x0, symName: __ZNKSt3__111__wrap_iterIP8customerEdeB8ue170006Ev, symObjAddr: 0x6218, symBinAddr: 0x10000962C, symSize: 0x18 }
  - { offsetInCU: 0x17CDD, offset: 0x17CDD, size: 0x8, addend: 0x0, symName: __ZNK8customer13getCustomerIDEv, symObjAddr: 0x6230, symBinAddr: 0x100009644, symSize: 0x18 }
  - { offsetInCU: 0x17D03, offset: 0x17D03, size: 0x8, addend: 0x0, symName: __ZN8customer10addBookingEi, symObjAddr: 0x6248, symBinAddr: 0x10000965C, symSize: 0x34 }
  - { offsetInCU: 0x17D37, offset: 0x17D37, size: 0x8, addend: 0x0, symName: __ZN4room12markAsBookedEv, symObjAddr: 0x627C, symBinAddr: 0x100009690, symSize: 0x60 }
  - { offsetInCU: 0x17D5D, offset: 0x17D5D, size: 0x8, addend: 0x0, symName: __ZN7bookingC1EiiiNSt3__112basic_stringIcNS0_11char_traitsIcEENS0_9allocatorIcEEEES6_, symObjAddr: 0x62DC, symBinAddr: 0x1000096F0, symSize: 0x54 }
  - { offsetInCU: 0x17DCF, offset: 0x17DCF, size: 0x8, addend: 0x0, symName: __ZNSt3__16vectorI7bookingNS_9allocatorIS1_EEE9push_backB8ue170006ERKS1_, symObjAddr: 0x6330, symBinAddr: 0x100009744, symSize: 0x6C }
  - { offsetInCU: 0x17E06, offset: 0x17E06, size: 0x8, addend: 0x0, symName: __ZNSt3__113basic_ostreamIcNS_11char_traitsIcEEElsB8ue170006EPFRS3_S4_E, symObjAddr: 0x63E4, symBinAddr: 0x1000097F8, symSize: 0x2C }
  - { offsetInCU: 0x17E3A, offset: 0x17E3A, size: 0x8, addend: 0x0, symName: __ZN7bookingD1Ev, symObjAddr: 0x6468, symBinAddr: 0x10000987C, symSize: 0x2C }
  - { offsetInCU: 0x17E66, offset: 0x17E66, size: 0x8, addend: 0x0, symName: __ZNSt3__111__wrap_iterIP8customerEppB8ue170006Ev, symObjAddr: 0x6494, symBinAddr: 0x1000098A8, symSize: 0x20 }
  - { offsetInCU: 0x17E8C, offset: 0x17E8C, size: 0x8, addend: 0x0, symName: __ZNSt3__111__wrap_iterIP4roomEppB8ue170006Ev, symObjAddr: 0x64B4, symBinAddr: 0x1000098C8, symSize: 0x20 }
  - { offsetInCU: 0x17EB2, offset: 0x17EB2, size: 0x8, addend: 0x0, symName: __ZNSt3__16vectorI4roomNS_9allocatorIS1_EEE11__make_iterB8ue170006EPS1_, symObjAddr: 0x64D4, symBinAddr: 0x1000098E8, symSize: 0x30 }
  - { offsetInCU: 0x17EE7, offset: 0x17EE7, size: 0x8, addend: 0x0, symName: __ZNSt3__111__wrap_iterIP4roomEC1B8ue170006ES2_, symObjAddr: 0x6504, symBinAddr: 0x100009918, symSize: 0x34 }
  - { offsetInCU: 0x17F1F, offset: 0x17F1F, size: 0x8, addend: 0x0, symName: __ZNSt3__111__wrap_iterIP4roomEC2B8ue170006ES2_, symObjAddr: 0x6538, symBinAddr: 0x10000994C, symSize: 0x20 }
  - { offsetInCU: 0x17F57, offset: 0x17F57, size: 0x8, addend: 0x0, symName: __ZNKSt3__111__wrap_iterIP4roomE4baseB8ue170006Ev, symObjAddr: 0x65A0, symBinAddr: 0x1000099B4, symSize: 0x18 }
  - { offsetInCU: 0x17F7D, offset: 0x17F7D, size: 0x8, addend: 0x0, symName: __ZNSt3__16vectorI8customerNS_9allocatorIS1_EEE11__make_iterB8ue170006EPS1_, symObjAddr: 0x65B8, symBinAddr: 0x1000099CC, symSize: 0x30 }
  - { offsetInCU: 0x17FB2, offset: 0x17FB2, size: 0x8, addend: 0x0, symName: __ZNSt3__111__wrap_iterIP8customerEC1B8ue170006ES2_, symObjAddr: 0x65E8, symBinAddr: 0x1000099FC, symSize: 0x34 }
  - { offsetInCU: 0x17FEA, offset: 0x17FEA, size: 0x8, addend: 0x0, symName: __ZNSt3__111__wrap_iterIP8customerEC2B8ue170006ES2_, symObjAddr: 0x661C, symBinAddr: 0x100009A30, symSize: 0x20 }
  - { offsetInCU: 0x18022, offset: 0x18022, size: 0x8, addend: 0x0, symName: __ZNKSt3__111__wrap_iterIP8customerE4baseB8ue170006Ev, symObjAddr: 0x6684, symBinAddr: 0x100009A98, symSize: 0x18 }
  - { offsetInCU: 0x18048, offset: 0x18048, size: 0x8, addend: 0x0, symName: __ZNSt3__16vectorIiNS_9allocatorIiEEE9push_backB8ue170006ERKi, symObjAddr: 0x669C, symBinAddr: 0x100009AB0, symSize: 0x6C }
  - { offsetInCU: 0x1807F, offset: 0x1807F, size: 0x8, addend: 0x0, symName: __ZNSt3__16vectorIiNS_9allocatorIiEEE22__construct_one_at_endB8ue170006IJRKiEEEvDpOT_, symObjAddr: 0x6708, symBinAddr: 0x100009B1C, symSize: 0x90 }
  - { offsetInCU: 0x180CE, offset: 0x180CE, size: 0x8, addend: 0x0, symName: __ZNSt3__16vectorIiNS_9allocatorIiEEE21__push_back_slow_pathIRKiEEvOT_, symObjAddr: 0x6798, symBinAddr: 0x100009BAC, symSize: 0xD8 }
  - { offsetInCU: 0x1812C, offset: 0x1812C, size: 0x8, addend: 0x0, symName: __ZNSt3__116allocator_traitsINS_9allocatorIiEEE9constructB8ue170006IiJRKiEvEEvRS2_PT_DpOT0_, symObjAddr: 0x6870, symBinAddr: 0x100009C84, symSize: 0x34 }
  - { offsetInCU: 0x18183, offset: 0x18183, size: 0x8, addend: 0x0, symName: __ZNSt3__19allocatorIiE9constructB8ue170006IiJRKiEEEvPT_DpOT0_, symObjAddr: 0x68A4, symBinAddr: 0x100009CB8, symSize: 0x28 }
  - { offsetInCU: 0x181D9, offset: 0x181D9, size: 0x8, addend: 0x0, symName: __ZNKSt3__16vectorIiNS_9allocatorIiEEE11__recommendB8ue170006Em, symObjAddr: 0x68CC, symBinAddr: 0x100009CE0, symSize: 0xB4 }
  - { offsetInCU: 0x1822E, offset: 0x1822E, size: 0x8, addend: 0x0, symName: __ZNSt3__114__split_bufferIiRNS_9allocatorIiEEEC1EmmS3_, symObjAddr: 0x6980, symBinAddr: 0x100009D94, symSize: 0x44 }
  - { offsetInCU: 0x18284, offset: 0x18284, size: 0x8, addend: 0x0, symName: __ZNSt3__114__split_bufferIiRNS_9allocatorIiEEED1Ev, symObjAddr: 0x6AD4, symBinAddr: 0x100009EE8, symSize: 0x2C }
  - { offsetInCU: 0x182B0, offset: 0x182B0, size: 0x8, addend: 0x0, symName: __ZNSt3__114__split_bufferIiRNS_9allocatorIiEEEC2EmmS3_, symObjAddr: 0x6B00, symBinAddr: 0x100009F14, symSize: 0xD4 }
  - { offsetInCU: 0x18323, offset: 0x18323, size: 0x8, addend: 0x0, symName: __ZNSt3__117__compressed_pairIPiRNS_9allocatorIiEEEC1B8ue170006IDnS4_EEOT_OT0_, symObjAddr: 0x6BD4, symBinAddr: 0x100009FE8, symSize: 0x3C }
  - { offsetInCU: 0x1837B, offset: 0x1837B, size: 0x8, addend: 0x0, symName: __ZNSt3__114__split_bufferIiRNS_9allocatorIiEEE7__allocB8ue170006Ev, symObjAddr: 0x6C10, symBinAddr: 0x10000A024, symSize: 0x28 }
  - { offsetInCU: 0x183A1, offset: 0x183A1, size: 0x8, addend: 0x0, symName: __ZNSt3__114__split_bufferIiRNS_9allocatorIiEEE9__end_capB8ue170006Ev, symObjAddr: 0x6C38, symBinAddr: 0x10000A04C, symSize: 0x28 }
  - { offsetInCU: 0x183C7, offset: 0x183C7, size: 0x8, addend: 0x0, symName: __ZNSt3__117__compressed_pairIPiRNS_9allocatorIiEEEC2B8ue170006IDnS4_EEOT_OT0_, symObjAddr: 0x6C60, symBinAddr: 0x10000A074, symSize: 0x48 }
  - { offsetInCU: 0x1841F, offset: 0x1841F, size: 0x8, addend: 0x0, symName: __ZNSt3__122__compressed_pair_elemIRNS_9allocatorIiEELi1ELb0EEC2B8ue170006IS3_vEEOT_, symObjAddr: 0x6CA8, symBinAddr: 0x10000A0BC, symSize: 0x20 }
  - { offsetInCU: 0x18461, offset: 0x18461, size: 0x8, addend: 0x0, symName: __ZNSt3__117__compressed_pairIPiRNS_9allocatorIiEEE6secondB8ue170006Ev, symObjAddr: 0x6CC8, symBinAddr: 0x10000A0DC, symSize: 0x28 }
  - { offsetInCU: 0x18487, offset: 0x18487, size: 0x8, addend: 0x0, symName: __ZNSt3__122__compressed_pair_elemIRNS_9allocatorIiEELi1ELb0EE5__getB8ue170006Ev, symObjAddr: 0x6CF0, symBinAddr: 0x10000A104, symSize: 0x18 }
  - { offsetInCU: 0x184AD, offset: 0x184AD, size: 0x8, addend: 0x0, symName: __ZNSt3__117__compressed_pairIPiRNS_9allocatorIiEEE5firstB8ue170006Ev, symObjAddr: 0x6D08, symBinAddr: 0x10000A11C, symSize: 0x24 }
  - { offsetInCU: 0x184D3, offset: 0x184D3, size: 0x8, addend: 0x0, symName: __ZNSt3__116reverse_iteratorIPiEC1B8ue170006ES1_, symObjAddr: 0x6DA4, symBinAddr: 0x10000A1B8, symSize: 0x34 }
  - { offsetInCU: 0x1850B, offset: 0x1850B, size: 0x8, addend: 0x0, symName: __ZNKSt3__116reverse_iteratorIPiE4baseB8ue170006Ev, symObjAddr: 0x6DD8, symBinAddr: 0x10000A1EC, symSize: 0x18 }
  - { offsetInCU: 0x18555, offset: 0x18555, size: 0x8, addend: 0x0, symName: __ZNKSt3__111__move_loopINS_17_ClassicAlgPolicyEEclB8ue170006INS_16reverse_iteratorIPiEES6_S6_EENS_4pairIT_T1_EES8_T0_S9_, symObjAddr: 0x711C, symBinAddr: 0x10000A530, symSize: 0xA0 }
  - { offsetInCU: 0x185C6, offset: 0x185C6, size: 0x8, addend: 0x0, symName: __ZNSt3__18_IterOpsINS_17_ClassicAlgPolicyEE11__iter_moveB8ue170006IRNS_16reverse_iteratorIPiEEEENS_9enable_ifIXsr12is_referenceIDTdeclsr3stdE7declvalIRT_EEEEE5valueEDTclsr3stdE4movedeclsr3stdE7declvalISA_EEEEE4typeEOS9_, symObjAddr: 0x7350, symBinAddr: 0x10000A764, symSize: 0x28 }
  - { offsetInCU: 0x185F2, offset: 0x185F2, size: 0x8, addend: 0x0, symName: __ZNKSt3__116reverse_iteratorIPiEdeB8ue170006Ev, symObjAddr: 0x7378, symBinAddr: 0x10000A78C, symSize: 0x28 }
  - { offsetInCU: 0x18626, offset: 0x18626, size: 0x8, addend: 0x0, symName: __ZNSt3__116reverse_iteratorIPiEppB8ue170006Ev, symObjAddr: 0x73A0, symBinAddr: 0x10000A7B4, symSize: 0x20 }
  - { offsetInCU: 0x1864C, offset: 0x1864C, size: 0x8, addend: 0x0, symName: __ZNSt3__18_IterOpsINS_17_ClassicAlgPolicyEE25__validate_iter_referenceB8ue170006IRNS_16reverse_iteratorIPiEEEEvv, symObjAddr: 0x73C0, symBinAddr: 0x10000A7D4, symSize: 0x4 }
  - { offsetInCU: 0x1866A, offset: 0x1866A, size: 0x8, addend: 0x0, symName: __ZNSt3__118__unwrap_iter_implINS_16reverse_iteratorIPiEELb0EE8__unwrapB8ue170006ES3_, symObjAddr: 0x73C4, symBinAddr: 0x10000A7D8, symSize: 0x24 }
  - { offsetInCU: 0x18693, offset: 0x18693, size: 0x8, addend: 0x0, symName: __ZNSt3__14pairINS_16reverse_iteratorIPiEES3_EC1B8ue170006IS3_S3_LPv0EEEOT_OT0_, symObjAddr: 0x73E8, symBinAddr: 0x10000A7FC, symSize: 0x3C }
  - { offsetInCU: 0x186F1, offset: 0x186F1, size: 0x8, addend: 0x0, symName: __ZNSt3__14pairINS_16reverse_iteratorIPiEES3_EC2B8ue170006IS3_S3_LPv0EEEOT_OT0_, symObjAddr: 0x7424, symBinAddr: 0x10000A838, symSize: 0x34 }
  - { offsetInCU: 0x1874F, offset: 0x1874F, size: 0x8, addend: 0x0, symName: __ZNSt3__118__unwrap_iter_implINS_16reverse_iteratorIPiEELb0EE8__rewrapB8ue170006ES3_S3_, symObjAddr: 0x7458, symBinAddr: 0x10000A86C, symSize: 0x2C }
  - { offsetInCU: 0x1877D, offset: 0x1877D, size: 0x8, addend: 0x0, symName: __ZNSt3__116reverse_iteratorIPiEC2B8ue170006ES1_, symObjAddr: 0x7484, symBinAddr: 0x10000A898, symSize: 0x28 }
  - { offsetInCU: 0x187B5, offset: 0x187B5, size: 0x8, addend: 0x0, symName: __ZNSt3__114__split_bufferIiRNS_9allocatorIiEEED2Ev, symObjAddr: 0x74AC, symBinAddr: 0x10000A8C0, symSize: 0x8C }
  - { offsetInCU: 0x187E1, offset: 0x187E1, size: 0x8, addend: 0x0, symName: __ZNSt3__114__split_bufferIiRNS_9allocatorIiEEE5clearB8ue170006Ev, symObjAddr: 0x7538, symBinAddr: 0x10000A94C, symSize: 0x28 }
  - { offsetInCU: 0x18807, offset: 0x18807, size: 0x8, addend: 0x0, symName: __ZNKSt3__114__split_bufferIiRNS_9allocatorIiEEE8capacityB8ue170006Ev, symObjAddr: 0x7560, symBinAddr: 0x10000A974, symSize: 0x40 }
  - { offsetInCU: 0x1882D, offset: 0x1882D, size: 0x8, addend: 0x0, symName: __ZNSt3__114__split_bufferIiRNS_9allocatorIiEEE17__destruct_at_endB8ue170006EPi, symObjAddr: 0x75A0, symBinAddr: 0x10000A9B4, symSize: 0x2C }
  - { offsetInCU: 0x18861, offset: 0x18861, size: 0x8, addend: 0x0, symName: __ZNSt3__114__split_bufferIiRNS_9allocatorIiEEE17__destruct_at_endB8ue170006EPiNS_17integral_constantIbLb0EEE, symObjAddr: 0x75CC, symBinAddr: 0x10000A9E0, symSize: 0x80 }
  - { offsetInCU: 0x188A2, offset: 0x188A2, size: 0x8, addend: 0x0, symName: __ZNKSt3__114__split_bufferIiRNS_9allocatorIiEEE9__end_capB8ue170006Ev, symObjAddr: 0x764C, symBinAddr: 0x10000AA60, symSize: 0x28 }
  - { offsetInCU: 0x188C8, offset: 0x188C8, size: 0x8, addend: 0x0, symName: __ZNKSt3__117__compressed_pairIPiRNS_9allocatorIiEEE5firstB8ue170006Ev, symObjAddr: 0x7674, symBinAddr: 0x10000AA88, symSize: 0x24 }
  - { offsetInCU: 0x188EE, offset: 0x188EE, size: 0x8, addend: 0x0, symName: __ZN7bookingC2EiiiNSt3__112basic_stringIcNS0_11char_traitsIcEENS0_9allocatorIcEEEES6_, symObjAddr: 0x7698, symBinAddr: 0x10000AAAC, symSize: 0xA8 }
  - { offsetInCU: 0x18960, offset: 0x18960, size: 0x8, addend: 0x0, symName: __ZNSt3__16vectorI7bookingNS_9allocatorIS1_EEE9__end_capB8ue170006Ev, symObjAddr: 0x7740, symBinAddr: 0x10000AB54, symSize: 0x28 }
  - { offsetInCU: 0x18986, offset: 0x18986, size: 0x8, addend: 0x0, symName: __ZNSt3__16vectorI7bookingNS_9allocatorIS1_EEE22__construct_one_at_endB8ue170006IJRKS1_EEEvDpOT_, symObjAddr: 0x7768, symBinAddr: 0x10000AB7C, symSize: 0x90 }
  - { offsetInCU: 0x189D5, offset: 0x189D5, size: 0x8, addend: 0x0, symName: __ZNSt3__16vectorI7bookingNS_9allocatorIS1_EEE21__push_back_slow_pathIRKS1_EEvOT_, symObjAddr: 0x77F8, symBinAddr: 0x10000AC0C, symSize: 0xD8 }
  - { offsetInCU: 0x18A33, offset: 0x18A33, size: 0x8, addend: 0x0, symName: __ZNSt3__117__compressed_pairIP7bookingNS_9allocatorIS1_EEE5firstB8ue170006Ev, symObjAddr: 0x78D0, symBinAddr: 0x10000ACE4, symSize: 0x24 }
  - { offsetInCU: 0x18A59, offset: 0x18A59, size: 0x8, addend: 0x0, symName: __ZNSt3__122__compressed_pair_elemIP7bookingLi0ELb0EE5__getB8ue170006Ev, symObjAddr: 0x78F4, symBinAddr: 0x10000AD08, symSize: 0x14 }
  - { offsetInCU: 0x18A98, offset: 0x18A98, size: 0x8, addend: 0x0, symName: __ZNSt3__16vectorI7bookingNS_9allocatorIS1_EEE21_ConstructTransactionC1B8ue170006ERS4_m, symObjAddr: 0x7908, symBinAddr: 0x10000AD1C, symSize: 0x3C }
  - { offsetInCU: 0x18AE0, offset: 0x18AE0, size: 0x8, addend: 0x0, symName: __ZNSt3__116allocator_traitsINS_9allocatorI7bookingEEE9constructB8ue170006IS2_JRKS2_EvEEvRS3_PT_DpOT0_, symObjAddr: 0x7944, symBinAddr: 0x10000AD58, symSize: 0x34 }
  - { offsetInCU: 0x18B37, offset: 0x18B37, size: 0x8, addend: 0x0, symName: __ZNSt3__16vectorI7bookingNS_9allocatorIS1_EEE7__allocB8ue170006Ev, symObjAddr: 0x7978, symBinAddr: 0x10000AD8C, symSize: 0x28 }
  - { offsetInCU: 0x18B5D, offset: 0x18B5D, size: 0x8, addend: 0x0, symName: __ZNSt3__16vectorI7bookingNS_9allocatorIS1_EEE21_ConstructTransactionD1B8ue170006Ev, symObjAddr: 0x79B4, symBinAddr: 0x10000ADC8, symSize: 0x2C }
  - { offsetInCU: 0x18B87, offset: 0x18B87, size: 0x8, addend: 0x0, symName: __ZNSt3__16vectorI7bookingNS_9allocatorIS1_EEE21_ConstructTransactionC2B8ue170006ERS4_m, symObjAddr: 0x79E0, symBinAddr: 0x10000ADF4, symSize: 0x44 }
  - { offsetInCU: 0x18BCF, offset: 0x18BCF, size: 0x8, addend: 0x0, symName: __ZNSt3__19allocatorI7bookingE9constructB8ue170006IS1_JRKS1_EEEvPT_DpOT0_, symObjAddr: 0x7A24, symBinAddr: 0x10000AE38, symSize: 0x30 }
  - { offsetInCU: 0x18C25, offset: 0x18C25, size: 0x8, addend: 0x0, symName: __ZN7bookingC1ERKS_, symObjAddr: 0x7A54, symBinAddr: 0x10000AE68, symSize: 0x34 }
  - { offsetInCU: 0x18C5A, offset: 0x18C5A, size: 0x8, addend: 0x0, symName: __ZN7bookingC2ERKS_, symObjAddr: 0x7A88, symBinAddr: 0x10000AE9C, symSize: 0x90 }
  - { offsetInCU: 0x18C8F, offset: 0x18C8F, size: 0x8, addend: 0x0, symName: __ZNSt3__117__compressed_pairIP7bookingNS_9allocatorIS1_EEE6secondB8ue170006Ev, symObjAddr: 0x7B18, symBinAddr: 0x10000AF2C, symSize: 0x24 }
  - { offsetInCU: 0x18CB5, offset: 0x18CB5, size: 0x8, addend: 0x0, symName: __ZNSt3__122__compressed_pair_elemINS_9allocatorI7bookingEELi1ELb1EE5__getB8ue170006Ev, symObjAddr: 0x7B3C, symBinAddr: 0x10000AF50, symSize: 0x14 }
  - { offsetInCU: 0x18CDB, offset: 0x18CDB, size: 0x8, addend: 0x0, symName: __ZNSt3__16vectorI7bookingNS_9allocatorIS1_EEE21_ConstructTransactionD2B8ue170006Ev, symObjAddr: 0x7B50, symBinAddr: 0x10000AF64, symSize: 0x20 }
  - { offsetInCU: 0x18D05, offset: 0x18D05, size: 0x8, addend: 0x0, symName: __ZNKSt3__16vectorI7bookingNS_9allocatorIS1_EEE11__recommendB8ue170006Em, symObjAddr: 0x7B70, symBinAddr: 0x10000AF84, symSize: 0xB4 }
  - { offsetInCU: 0x18D5A, offset: 0x18D5A, size: 0x8, addend: 0x0, symName: __ZNKSt3__16vectorI7bookingNS_9allocatorIS1_EEE4sizeB8ue170006Ev, symObjAddr: 0x7C24, symBinAddr: 0x10000B038, symSize: 0x28 }
  - { offsetInCU: 0x18D80, offset: 0x18D80, size: 0x8, addend: 0x0, symName: __ZNSt3__114__split_bufferI7bookingRNS_9allocatorIS1_EEEC1EmmS4_, symObjAddr: 0x7C4C, symBinAddr: 0x10000B060, symSize: 0x44 }
  - { offsetInCU: 0x18DD6, offset: 0x18DD6, size: 0x8, addend: 0x0, symName: __ZNSt3__114__split_bufferI7bookingRNS_9allocatorIS1_EEED1Ev, symObjAddr: 0x7DA0, symBinAddr: 0x10000B1B4, symSize: 0x2C }
  - { offsetInCU: 0x18E02, offset: 0x18E02, size: 0x8, addend: 0x0, symName: __ZNKSt3__16vectorI7bookingNS_9allocatorIS1_EEE8max_sizeEv, symObjAddr: 0x7DCC, symBinAddr: 0x10000B1E0, symSize: 0x60 }
  - { offsetInCU: 0x18E2A, offset: 0x18E2A, size: 0x8, addend: 0x0, symName: __ZNKSt3__16vectorI7bookingNS_9allocatorIS1_EEE20__throw_length_errorB8ue170006Ev, symObjAddr: 0x7E2C, symBinAddr: 0x10000B240, symSize: 0x1C }
  - { offsetInCU: 0x18E50, offset: 0x18E50, size: 0x8, addend: 0x0, symName: __ZNKSt3__16vectorI7bookingNS_9allocatorIS1_EEE8capacityB8ue170006Ev, symObjAddr: 0x7E48, symBinAddr: 0x10000B25C, symSize: 0x40 }
  - { offsetInCU: 0x18E80, offset: 0x18E80, size: 0x8, addend: 0x0, symName: __ZNSt3__116allocator_traitsINS_9allocatorI7bookingEEE8max_sizeB8ue170006IS3_vEEmRKS3_, symObjAddr: 0x7E88, symBinAddr: 0x10000B29C, symSize: 0x24 }
  - { offsetInCU: 0x18EAE, offset: 0x18EAE, size: 0x8, addend: 0x0, symName: __ZNKSt3__16vectorI7bookingNS_9allocatorIS1_EEE7__allocB8ue170006Ev, symObjAddr: 0x7EAC, symBinAddr: 0x10000B2C0, symSize: 0x28 }
  - { offsetInCU: 0x18ED4, offset: 0x18ED4, size: 0x8, addend: 0x0, symName: __ZNKSt3__19allocatorI7bookingE8max_sizeB8ue170006Ev, symObjAddr: 0x7ED4, symBinAddr: 0x10000B2E8, symSize: 0x14 }
  - { offsetInCU: 0x18EFA, offset: 0x18EFA, size: 0x8, addend: 0x0, symName: __ZNKSt3__117__compressed_pairIP7bookingNS_9allocatorIS1_EEE6secondB8ue170006Ev, symObjAddr: 0x7EE8, symBinAddr: 0x10000B2FC, symSize: 0x24 }
  - { offsetInCU: 0x18F20, offset: 0x18F20, size: 0x8, addend: 0x0, symName: __ZNKSt3__122__compressed_pair_elemINS_9allocatorI7bookingEELi1ELb1EE5__getB8ue170006Ev, symObjAddr: 0x7F0C, symBinAddr: 0x10000B320, symSize: 0x14 }
  - { offsetInCU: 0x18F46, offset: 0x18F46, size: 0x8, addend: 0x0, symName: __ZNKSt3__16vectorI7bookingNS_9allocatorIS1_EEE9__end_capB8ue170006Ev, symObjAddr: 0x7F20, symBinAddr: 0x10000B334, symSize: 0x28 }
  - { offsetInCU: 0x18F6C, offset: 0x18F6C, size: 0x8, addend: 0x0, symName: __ZNKSt3__117__compressed_pairIP7bookingNS_9allocatorIS1_EEE5firstB8ue170006Ev, symObjAddr: 0x7F48, symBinAddr: 0x10000B35C, symSize: 0x24 }
  - { offsetInCU: 0x18F92, offset: 0x18F92, size: 0x8, addend: 0x0, symName: __ZNKSt3__122__compressed_pair_elemIP7bookingLi0ELb0EE5__getB8ue170006Ev, symObjAddr: 0x7F6C, symBinAddr: 0x10000B380, symSize: 0x14 }
  - { offsetInCU: 0x18FB8, offset: 0x18FB8, size: 0x8, addend: 0x0, symName: __ZNSt3__114__split_bufferI7bookingRNS_9allocatorIS1_EEEC2EmmS4_, symObjAddr: 0x7F80, symBinAddr: 0x10000B394, symSize: 0xD4 }
  - { offsetInCU: 0x1902B, offset: 0x1902B, size: 0x8, addend: 0x0, symName: __ZNSt3__117__compressed_pairIP7bookingRNS_9allocatorIS1_EEEC1B8ue170006IDnS5_EEOT_OT0_, symObjAddr: 0x8054, symBinAddr: 0x10000B468, symSize: 0x3C }
  - { offsetInCU: 0x19083, offset: 0x19083, size: 0x8, addend: 0x0, symName: __ZNSt3__114__split_bufferI7bookingRNS_9allocatorIS1_EEE7__allocB8ue170006Ev, symObjAddr: 0x80D0, symBinAddr: 0x10000B4E4, symSize: 0x28 }
  - { offsetInCU: 0x190A9, offset: 0x190A9, size: 0x8, addend: 0x0, symName: __ZNSt3__114__split_bufferI7bookingRNS_9allocatorIS1_EEE9__end_capB8ue170006Ev, symObjAddr: 0x80F8, symBinAddr: 0x10000B50C, symSize: 0x28 }
  - { offsetInCU: 0x190CF, offset: 0x190CF, size: 0x8, addend: 0x0, symName: __ZNSt3__117__compressed_pairIP7bookingRNS_9allocatorIS1_EEEC2B8ue170006IDnS5_EEOT_OT0_, symObjAddr: 0x8120, symBinAddr: 0x10000B534, symSize: 0x48 }
  - { offsetInCU: 0x19127, offset: 0x19127, size: 0x8, addend: 0x0, symName: __ZNSt3__122__compressed_pair_elemIRNS_9allocatorI7bookingEELi1ELb0EEC2B8ue170006IS4_vEEOT_, symObjAddr: 0x8168, symBinAddr: 0x10000B57C, symSize: 0x20 }
  - { offsetInCU: 0x19169, offset: 0x19169, size: 0x8, addend: 0x0, symName: __ZNSt3__19allocatorI7bookingE8allocateB8ue170006Em, symObjAddr: 0x8188, symBinAddr: 0x10000B59C, symSize: 0x58 }
  - { offsetInCU: 0x1919D, offset: 0x1919D, size: 0x8, addend: 0x0, symName: __ZNSt3__117__compressed_pairIP7bookingRNS_9allocatorIS1_EEE6secondB8ue170006Ev, symObjAddr: 0x81E0, symBinAddr: 0x10000B5F4, symSize: 0x28 }
  - { offsetInCU: 0x191C3, offset: 0x191C3, size: 0x8, addend: 0x0, symName: __ZNSt3__122__compressed_pair_elemIRNS_9allocatorI7bookingEELi1ELb0EE5__getB8ue170006Ev, symObjAddr: 0x8208, symBinAddr: 0x10000B61C, symSize: 0x18 }
  - { offsetInCU: 0x191E9, offset: 0x191E9, size: 0x8, addend: 0x0, symName: __ZNSt3__117__compressed_pairIP7bookingRNS_9allocatorIS1_EEE5firstB8ue170006Ev, symObjAddr: 0x8220, symBinAddr: 0x10000B634, symSize: 0x24 }
  - { offsetInCU: 0x1920F, offset: 0x1920F, size: 0x8, addend: 0x0, symName: __ZNKSt3__16vectorI7bookingNS_9allocatorIS1_EEE17__annotate_deleteB8ue170006Ev, symObjAddr: 0x8244, symBinAddr: 0x10000B658, symSize: 0xB8 }
  - { offsetInCU: 0x19235, offset: 0x19235, size: 0x8, addend: 0x0, symName: __ZNSt3__116reverse_iteratorIP7bookingEC1B8ue170006ES2_, symObjAddr: 0x8428, symBinAddr: 0x10000B83C, symSize: 0x34 }
  - { offsetInCU: 0x1926D, offset: 0x1926D, size: 0x8, addend: 0x0, symName: __ZNKSt3__116reverse_iteratorIP7bookingE4baseB8ue170006Ev, symObjAddr: 0x845C, symBinAddr: 0x10000B870, symSize: 0x18 }
  - { offsetInCU: 0x19293, offset: 0x19293, size: 0x8, addend: 0x0, symName: __ZNKSt3__16vectorI7bookingNS_9allocatorIS1_EEE14__annotate_newB8ue170006Em, symObjAddr: 0x84B0, symBinAddr: 0x10000B8C4, symSize: 0xAC }
  - { offsetInCU: 0x192C8, offset: 0x192C8, size: 0x8, addend: 0x0, symName: __ZNKSt3__16vectorI7bookingNS_9allocatorIS1_EEE31__annotate_contiguous_containerB8ue170006EPKvS6_S6_S6_, symObjAddr: 0x855C, symBinAddr: 0x10000B970, symSize: 0x20 }
  - { offsetInCU: 0x1931A, offset: 0x1931A, size: 0x8, addend: 0x0, symName: __ZNKSt3__16vectorI7bookingNS_9allocatorIS1_EEE4dataB8ue170006Ev, symObjAddr: 0x857C, symBinAddr: 0x10000B990, symSize: 0x28 }
  - { offsetInCU: 0x19340, offset: 0x19340, size: 0x8, addend: 0x0, symName: __ZNSt3__129_AllocatorDestroyRangeReverseINS_9allocatorI7bookingEENS_16reverse_iteratorIPS2_EEEC1B8ue170006ERS3_RS6_S9_, symObjAddr: 0x85F0, symBinAddr: 0x10000BA04, symSize: 0x44 }
  - { offsetInCU: 0x1939D, offset: 0x1939D, size: 0x8, addend: 0x0, symName: __ZNSt3__116allocator_traitsINS_9allocatorI7bookingEEE9constructB8ue170006IS2_JS2_EvEEvRS3_PT_DpOT0_, symObjAddr: 0x867C, symBinAddr: 0x10000BA90, symSize: 0x34 }
  - { offsetInCU: 0x193F4, offset: 0x193F4, size: 0x8, addend: 0x0, symName: __ZNKSt3__116reverse_iteratorIP7bookingEdeB8ue170006Ev, symObjAddr: 0x86D4, symBinAddr: 0x10000BAE8, symSize: 0x28 }
  - { offsetInCU: 0x19428, offset: 0x19428, size: 0x8, addend: 0x0, symName: __ZNSt3__116reverse_iteratorIP7bookingEppB8ue170006Ev, symObjAddr: 0x86FC, symBinAddr: 0x10000BB10, symSize: 0x20 }
  - { offsetInCU: 0x1944E, offset: 0x1944E, size: 0x8, addend: 0x0, symName: __ZNSt3__128__exception_guard_exceptionsINS_29_AllocatorDestroyRangeReverseINS_9allocatorI7bookingEENS_16reverse_iteratorIPS3_EEEEE10__completeB8ue170006Ev, symObjAddr: 0x871C, symBinAddr: 0x10000BB30, symSize: 0x1C }
  - { offsetInCU: 0x19474, offset: 0x19474, size: 0x8, addend: 0x0, symName: __ZNSt3__128__exception_guard_exceptionsINS_29_AllocatorDestroyRangeReverseINS_9allocatorI7bookingEENS_16reverse_iteratorIPS3_EEEEED1B8ue170006Ev, symObjAddr: 0x8738, symBinAddr: 0x10000BB4C, symSize: 0x2C }
  - { offsetInCU: 0x1949E, offset: 0x1949E, size: 0x8, addend: 0x0, symName: __ZNSt3__128__exception_guard_exceptionsINS_29_AllocatorDestroyRangeReverseINS_9allocatorI7bookingEENS_16reverse_iteratorIPS3_EEEEEC1B8ue170006ES8_, symObjAddr: 0x8764, symBinAddr: 0x10000BB78, symSize: 0x34 }
  - { offsetInCU: 0x194D7, offset: 0x194D7, size: 0x8, addend: 0x0, symName: __ZNSt3__128__exception_guard_exceptionsINS_29_AllocatorDestroyRangeReverseINS_9allocatorI7bookingEENS_16reverse_iteratorIPS3_EEEEEC2B8ue170006ES8_, symObjAddr: 0x8798, symBinAddr: 0x10000BBAC, symSize: 0x30 }
  - { offsetInCU: 0x19510, offset: 0x19510, size: 0x8, addend: 0x0, symName: __ZNSt3__129_AllocatorDestroyRangeReverseINS_9allocatorI7bookingEENS_16reverse_iteratorIPS2_EEEC2B8ue170006ERS3_RS6_S9_, symObjAddr: 0x87C8, symBinAddr: 0x10000BBDC, symSize: 0x38 }
  - { offsetInCU: 0x19567, offset: 0x19567, size: 0x8, addend: 0x0, symName: __ZNSt3__19allocatorI7bookingE9constructB8ue170006IS1_JS1_EEEvPT_DpOT0_, symObjAddr: 0x8800, symBinAddr: 0x10000BC14, symSize: 0x30 }
  - { offsetInCU: 0x195BD, offset: 0x195BD, size: 0x8, addend: 0x0, symName: __ZN7bookingC1EOS_, symObjAddr: 0x8830, symBinAddr: 0x10000BC44, symSize: 0x34 }
  - { offsetInCU: 0x195F2, offset: 0x195F2, size: 0x8, addend: 0x0, symName: __ZN7bookingC2EOS_, symObjAddr: 0x8864, symBinAddr: 0x10000BC78, symSize: 0x64 }
  - { offsetInCU: 0x1962C, offset: 0x1962C, size: 0x8, addend: 0x0, symName: __ZNSt3__119__to_address_helperINS_16reverse_iteratorIP7bookingEEvE6__callB8ue170006ERKS4_, symObjAddr: 0x88C8, symBinAddr: 0x10000BCDC, symSize: 0x38 }
  - { offsetInCU: 0x1964F, offset: 0x1964F, size: 0x8, addend: 0x0, symName: __ZNKSt3__116reverse_iteratorIP7bookingEptB8ue170006Ev, symObjAddr: 0x8900, symBinAddr: 0x10000BD14, symSize: 0x24 }
  - { offsetInCU: 0x19675, offset: 0x19675, size: 0x8, addend: 0x0, symName: __ZNSt3__128__exception_guard_exceptionsINS_29_AllocatorDestroyRangeReverseINS_9allocatorI7bookingEENS_16reverse_iteratorIPS3_EEEEED2B8ue170006Ev, symObjAddr: 0x8924, symBinAddr: 0x10000BD38, symSize: 0x50 }
  - { offsetInCU: 0x1969F, offset: 0x1969F, size: 0x8, addend: 0x0, symName: __ZNKSt3__129_AllocatorDestroyRangeReverseINS_9allocatorI7bookingEENS_16reverse_iteratorIPS2_EEEclB8ue170006Ev, symObjAddr: 0x8974, symBinAddr: 0x10000BD88, symSize: 0xB4 }
  - { offsetInCU: 0x196C6, offset: 0x196C6, size: 0x8, addend: 0x0, symName: __ZNSt3__116reverse_iteratorINS0_IP7bookingEEEC1B8ue170006ES3_, symObjAddr: 0x8A98, symBinAddr: 0x10000BEAC, symSize: 0x3C }
  - { offsetInCU: 0x196FE, offset: 0x196FE, size: 0x8, addend: 0x0, symName: __ZNSt3__116allocator_traitsINS_9allocatorI7bookingEEE7destroyB8ue170006IS2_vEEvRS3_PT_, symObjAddr: 0x8B34, symBinAddr: 0x10000BF48, symSize: 0x2C }
  - { offsetInCU: 0x1973B, offset: 0x1973B, size: 0x8, addend: 0x0, symName: __ZNSt3__116reverse_iteratorINS0_IP7bookingEEEppB8ue170006Ev, symObjAddr: 0x8B84, symBinAddr: 0x10000BF98, symSize: 0x30 }
  - { offsetInCU: 0x19761, offset: 0x19761, size: 0x8, addend: 0x0, symName: __ZNKSt3__116reverse_iteratorINS0_IP7bookingEEE4baseB8ue170006Ev, symObjAddr: 0x8BB4, symBinAddr: 0x10000BFC8, symSize: 0x24 }
  - { offsetInCU: 0x19787, offset: 0x19787, size: 0x8, addend: 0x0, symName: __ZNSt3__19allocatorI7bookingE7destroyB8ue170006EPS1_, symObjAddr: 0x8BD8, symBinAddr: 0x10000BFEC, symSize: 0x28 }
  - { offsetInCU: 0x197C0, offset: 0x197C0, size: 0x8, addend: 0x0, symName: __ZNSt3__119__to_address_helperINS_16reverse_iteratorINS1_IP7bookingEEEEvE6__callB8ue170006ERKS5_, symObjAddr: 0x8C00, symBinAddr: 0x10000C014, symSize: 0x38 }
  - { offsetInCU: 0x197E3, offset: 0x197E3, size: 0x8, addend: 0x0, symName: __ZNKSt3__116reverse_iteratorINS0_IP7bookingEEEptB8ue170006Ev, symObjAddr: 0x8C38, symBinAddr: 0x10000C04C, symSize: 0x24 }
  - { offsetInCU: 0x19809, offset: 0x19809, size: 0x8, addend: 0x0, symName: __ZNKSt3__116reverse_iteratorINS0_IP7bookingEEEdeB8ue170006Ev, symObjAddr: 0x8C5C, symBinAddr: 0x10000C070, symSize: 0x34 }
  - { offsetInCU: 0x1983D, offset: 0x1983D, size: 0x8, addend: 0x0, symName: __ZNSt3__116reverse_iteratorIP7bookingEmmB8ue170006Ev, symObjAddr: 0x8C90, symBinAddr: 0x10000C0A4, symSize: 0x20 }
  - { offsetInCU: 0x19863, offset: 0x19863, size: 0x8, addend: 0x0, symName: __ZNSt3__116reverse_iteratorINS0_IP7bookingEEEC2B8ue170006ES3_, symObjAddr: 0x8CB0, symBinAddr: 0x10000C0C4, symSize: 0x2C }
  - { offsetInCU: 0x1989B, offset: 0x1989B, size: 0x8, addend: 0x0, symName: __ZNSt3__116reverse_iteratorIP7bookingEC2B8ue170006ES2_, symObjAddr: 0x8CDC, symBinAddr: 0x10000C0F0, symSize: 0x28 }
  - { offsetInCU: 0x198D3, offset: 0x198D3, size: 0x8, addend: 0x0, symName: __ZNSt3__114__split_bufferI7bookingRNS_9allocatorIS1_EEED2Ev, symObjAddr: 0x8D04, symBinAddr: 0x10000C118, symSize: 0x8C }
  - { offsetInCU: 0x198FF, offset: 0x198FF, size: 0x8, addend: 0x0, symName: __ZNSt3__114__split_bufferI7bookingRNS_9allocatorIS1_EEE5clearB8ue170006Ev, symObjAddr: 0x8D90, symBinAddr: 0x10000C1A4, symSize: 0x28 }
  - { offsetInCU: 0x19925, offset: 0x19925, size: 0x8, addend: 0x0, symName: __ZNSt3__116allocator_traitsINS_9allocatorI7bookingEEE10deallocateB8ue170006ERS3_PS2_m, symObjAddr: 0x8DB8, symBinAddr: 0x10000C1CC, symSize: 0x34 }
  - { offsetInCU: 0x19967, offset: 0x19967, size: 0x8, addend: 0x0, symName: __ZNKSt3__114__split_bufferI7bookingRNS_9allocatorIS1_EEE8capacityB8ue170006Ev, symObjAddr: 0x8DEC, symBinAddr: 0x10000C200, symSize: 0x40 }
  - { offsetInCU: 0x1998D, offset: 0x1998D, size: 0x8, addend: 0x0, symName: __ZNSt3__114__split_bufferI7bookingRNS_9allocatorIS1_EEE17__destruct_at_endB8ue170006EPS1_, symObjAddr: 0x8E2C, symBinAddr: 0x10000C240, symSize: 0x2C }
  - { offsetInCU: 0x199C1, offset: 0x199C1, size: 0x8, addend: 0x0, symName: __ZNSt3__114__split_bufferI7bookingRNS_9allocatorIS1_EEE17__destruct_at_endB8ue170006EPS1_NS_17integral_constantIbLb0EEE, symObjAddr: 0x8E58, symBinAddr: 0x10000C26C, symSize: 0x80 }
  - { offsetInCU: 0x19A02, offset: 0x19A02, size: 0x8, addend: 0x0, symName: __ZNSt3__19allocatorI7bookingE10deallocateB8ue170006EPS1_m, symObjAddr: 0x8ED8, symBinAddr: 0x10000C2EC, symSize: 0x40 }
  - { offsetInCU: 0x19A44, offset: 0x19A44, size: 0x8, addend: 0x0, symName: __ZNKSt3__114__split_bufferI7bookingRNS_9allocatorIS1_EEE9__end_capB8ue170006Ev, symObjAddr: 0x8F18, symBinAddr: 0x10000C32C, symSize: 0x28 }
  - { offsetInCU: 0x19A6A, offset: 0x19A6A, size: 0x8, addend: 0x0, symName: __ZNKSt3__117__compressed_pairIP7bookingRNS_9allocatorIS1_EEE5firstB8ue170006Ev, symObjAddr: 0x8F40, symBinAddr: 0x10000C354, symSize: 0x24 }
  - { offsetInCU: 0x19A90, offset: 0x19A90, size: 0x8, addend: 0x0, symName: __ZNSt3__111char_traitsIcE6lengthB8ue170006EPKc, symObjAddr: 0x9150, symBinAddr: 0x10000C564, symSize: 0x34 }
  - { offsetInCU: 0x19AD1, offset: 0x19AD1, size: 0x8, addend: 0x0, symName: __ZNKSt3__113basic_ostreamIcNS_11char_traitsIcEEE6sentrycvbB8ue170006Ev, symObjAddr: 0x9184, symBinAddr: 0x10000C598, symSize: 0x1C }
  - { offsetInCU: 0x19AF7, offset: 0x19AF7, size: 0x8, addend: 0x0, symName: __ZNSt3__119ostreambuf_iteratorIcNS_11char_traitsIcEEEC1B8ue170006ERNS_13basic_ostreamIcS2_EE, symObjAddr: 0x93E0, symBinAddr: 0x10000C7F4, symSize: 0x34 }
  - { offsetInCU: 0x19B2F, offset: 0x19B2F, size: 0x8, addend: 0x0, symName: __ZNKSt3__18ios_base5flagsB8ue170006Ev, symObjAddr: 0x9414, symBinAddr: 0x10000C828, symSize: 0x18 }
  - { offsetInCU: 0x19B57, offset: 0x19B57, size: 0x8, addend: 0x0, symName: __ZNKSt3__19basic_iosIcNS_11char_traitsIcEEE4fillB8ue170006Ev, symObjAddr: 0x942C, symBinAddr: 0x10000C840, symSize: 0x64 }
  - { offsetInCU: 0x19B7F, offset: 0x19B7F, size: 0x8, addend: 0x0, symName: __ZNKSt3__119ostreambuf_iteratorIcNS_11char_traitsIcEEE6failedB8ue170006Ev, symObjAddr: 0x9490, symBinAddr: 0x10000C8A4, symSize: 0x24 }
  - { offsetInCU: 0x19BA5, offset: 0x19BA5, size: 0x8, addend: 0x0, symName: __ZNSt3__19basic_iosIcNS_11char_traitsIcEEE8setstateB8ue170006Ej, symObjAddr: 0x94B4, symBinAddr: 0x10000C8C8, symSize: 0x2C }
  - { offsetInCU: 0x19BDA, offset: 0x19BDA, size: 0x8, addend: 0x0, symName: __ZNKSt3__18ios_base5widthB8ue170006Ev, symObjAddr: 0x94E0, symBinAddr: 0x10000C8F4, symSize: 0x18 }
  - { offsetInCU: 0x19C02, offset: 0x19C02, size: 0x8, addend: 0x0, symName: __ZNSt3__115basic_streambufIcNS_11char_traitsIcEEE5sputnB8ue170006EPKcl, symObjAddr: 0x94F8, symBinAddr: 0x10000C90C, symSize: 0x3C }
  - { offsetInCU: 0x19C44, offset: 0x19C44, size: 0x8, addend: 0x0, symName: __ZNSt3__112basic_stringIcNS_11char_traitsIcEENS_9allocatorIcEEEC1B8ue170006Emc, symObjAddr: 0x9534, symBinAddr: 0x10000C948, symSize: 0x3C }
  - { offsetInCU: 0x19C8C, offset: 0x19C8C, size: 0x8, addend: 0x0, symName: __ZNSt3__112basic_stringIcNS_11char_traitsIcEENS_9allocatorIcEEE4dataB8ue170006Ev, symObjAddr: 0x9570, symBinAddr: 0x10000C984, symSize: 0x28 }
  - { offsetInCU: 0x19CB2, offset: 0x19CB2, size: 0x8, addend: 0x0, symName: __ZNSt3__18ios_base5widthB8ue170006El, symObjAddr: 0x9598, symBinAddr: 0x10000C9AC, symSize: 0x2C }
  - { offsetInCU: 0x19CF8, offset: 0x19CF8, size: 0x8, addend: 0x0, symName: __ZNSt3__112basic_stringIcNS_11char_traitsIcEENS_9allocatorIcEEEC2B8ue170006Emc, symObjAddr: 0x95C4, symBinAddr: 0x10000C9D8, symSize: 0x4C }
  - { offsetInCU: 0x19D40, offset: 0x19D40, size: 0x8, addend: 0x0, symName: __ZNSt3__117__compressed_pairINS_12basic_stringIcNS_11char_traitsIcEENS_9allocatorIcEEE5__repES5_EC1B8ue170006INS_18__default_init_tagESA_EEOT_OT0_, symObjAddr: 0x9610, symBinAddr: 0x10000CA24, symSize: 0x3C }
  - { offsetInCU: 0x19D98, offset: 0x19D98, size: 0x8, addend: 0x0, symName: __ZNSt3__117__compressed_pairINS_12basic_stringIcNS_11char_traitsIcEENS_9allocatorIcEEE5__repES5_EC2B8ue170006INS_18__default_init_tagESA_EEOT_OT0_, symObjAddr: 0x964C, symBinAddr: 0x10000CA60, symSize: 0x3C }
  - { offsetInCU: 0x19DF0, offset: 0x19DF0, size: 0x8, addend: 0x0, symName: __ZNSt3__122__compressed_pair_elemINS_12basic_stringIcNS_11char_traitsIcEENS_9allocatorIcEEE5__repELi0ELb0EEC2B8ue170006ENS_18__default_init_tagE, symObjAddr: 0x9688, symBinAddr: 0x10000CA9C, symSize: 0x14 }
  - { offsetInCU: 0x19E25, offset: 0x19E25, size: 0x8, addend: 0x0, symName: __ZNSt3__122__compressed_pair_elemINS_9allocatorIcEELi1ELb1EEC2B8ue170006ENS_18__default_init_tagE, symObjAddr: 0x969C, symBinAddr: 0x10000CAB0, symSize: 0x2C }
  - { offsetInCU: 0x19E5A, offset: 0x19E5A, size: 0x8, addend: 0x0, symName: __ZNSt3__19allocatorIcEC2B8ue170006Ev, symObjAddr: 0x96C8, symBinAddr: 0x10000CADC, symSize: 0x2C }
  - { offsetInCU: 0x19E84, offset: 0x19E84, size: 0x8, addend: 0x0, symName: __ZNSt3__116__non_trivial_ifILb1ENS_9allocatorIcEEEC2B8ue170006Ev, symObjAddr: 0x96F4, symBinAddr: 0x10000CB08, symSize: 0x14 }
  - { offsetInCU: 0x19EAE, offset: 0x19EAE, size: 0x8, addend: 0x0, symName: __ZNSt3__112basic_stringIcNS_11char_traitsIcEENS_9allocatorIcEEE13__get_pointerB8ue170006Ev, symObjAddr: 0x971C, symBinAddr: 0x10000CB30, symSize: 0x54 }
  - { offsetInCU: 0x19ED4, offset: 0x19ED4, size: 0x8, addend: 0x0, symName: __ZNKSt3__112basic_stringIcNS_11char_traitsIcEENS_9allocatorIcEEE9__is_longB8ue170006Ev, symObjAddr: 0x9770, symBinAddr: 0x10000CB84, symSize: 0x38 }
  - { offsetInCU: 0x19EFA, offset: 0x19EFA, size: 0x8, addend: 0x0, symName: __ZNSt3__112basic_stringIcNS_11char_traitsIcEENS_9allocatorIcEEE18__get_long_pointerB8ue170006Ev, symObjAddr: 0x97A8, symBinAddr: 0x10000CBBC, symSize: 0x28 }
  - { offsetInCU: 0x19F20, offset: 0x19F20, size: 0x8, addend: 0x0, symName: __ZNSt3__112basic_stringIcNS_11char_traitsIcEENS_9allocatorIcEEE19__get_short_pointerB8ue170006Ev, symObjAddr: 0x97D0, symBinAddr: 0x10000CBE4, symSize: 0x28 }
  - { offsetInCU: 0x19F46, offset: 0x19F46, size: 0x8, addend: 0x0, symName: __ZNKSt3__117__compressed_pairINS_12basic_stringIcNS_11char_traitsIcEENS_9allocatorIcEEE5__repES5_E5firstB8ue170006Ev, symObjAddr: 0x97F8, symBinAddr: 0x10000CC0C, symSize: 0x24 }
  - { offsetInCU: 0x19F6C, offset: 0x19F6C, size: 0x8, addend: 0x0, symName: __ZNKSt3__122__compressed_pair_elemINS_12basic_stringIcNS_11char_traitsIcEENS_9allocatorIcEEE5__repELi0ELb0EE5__getB8ue170006Ev, symObjAddr: 0x981C, symBinAddr: 0x10000CC30, symSize: 0x14 }
  - { offsetInCU: 0x19F92, offset: 0x19F92, size: 0x8, addend: 0x0, symName: __ZNSt3__114pointer_traitsIPcE10pointer_toB8ue170006ERc, symObjAddr: 0x9830, symBinAddr: 0x10000CC44, symSize: 0x14 }
  - { offsetInCU: 0x19FB5, offset: 0x19FB5, size: 0x8, addend: 0x0, symName: __ZNSt3__119ostreambuf_iteratorIcNS_11char_traitsIcEEEC2B8ue170006ERNS_13basic_ostreamIcS2_EE, symObjAddr: 0x9844, symBinAddr: 0x10000CC58, symSize: 0x54 }
  - { offsetInCU: 0x19FED, offset: 0x19FED, size: 0x8, addend: 0x0, symName: __ZNKSt3__19basic_iosIcNS_11char_traitsIcEEE5rdbufB8ue170006Ev, symObjAddr: 0x9898, symBinAddr: 0x10000CCAC, symSize: 0x24 }
  - { offsetInCU: 0x1A015, offset: 0x1A015, size: 0x8, addend: 0x0, symName: __ZNKSt3__18ios_base5rdbufB8ue170006Ev, symObjAddr: 0x98BC, symBinAddr: 0x10000CCD0, symSize: 0x18 }
  - { offsetInCU: 0x1A03B, offset: 0x1A03B, size: 0x8, addend: 0x0, symName: __ZNSt3__111char_traitsIcE11eq_int_typeB8ue170006Eii, symObjAddr: 0x98D4, symBinAddr: 0x10000CCE8, symSize: 0x28 }
  - { offsetInCU: 0x1A06E, offset: 0x1A06E, size: 0x8, addend: 0x0, symName: __ZNSt3__111char_traitsIcE3eofB8ue170006Ev, symObjAddr: 0x98FC, symBinAddr: 0x10000CD10, symSize: 0x8 }
  - { offsetInCU: 0x1A082, offset: 0x1A082, size: 0x8, addend: 0x0, symName: __ZNKSt3__19basic_iosIcNS_11char_traitsIcEEE5widenB8ue170006Ec, symObjAddr: 0x9904, symBinAddr: 0x10000CD18, symSize: 0x84 }
  - { offsetInCU: 0x1A0EB, offset: 0x1A0EB, size: 0x8, addend: 0x0, symName: __ZNKSt3__15ctypeIcE5widenB8ue170006Ec, symObjAddr: 0x99B4, symBinAddr: 0x10000CDC8, symSize: 0x38 }
  - { offsetInCU: 0x1A120, offset: 0x1A120, size: 0x8, addend: 0x0, symName: __ZNSt3__18ios_base8setstateB8ue170006Ej, symObjAddr: 0x99EC, symBinAddr: 0x10000CE00, symSize: 0x34 }
  - { offsetInCU: 0x1A157, offset: 0x1A157, size: 0x8, addend: 0x0, symName: __ZN7bookingD2Ev, symObjAddr: 0x9A44, symBinAddr: 0x10000CE58, symSize: 0x3C }
  - { offsetInCU: 0x1A183, offset: 0x1A183, size: 0x8, addend: 0x0, symName: __ZNK5Hotel11findBookingEi, symObjAddr: 0x9A80, symBinAddr: 0x10000CE94, symSize: 0xD8 }
  - { offsetInCU: 0x1A208, offset: 0x1A208, size: 0x8, addend: 0x0, symName: __ZNKSt3__18optionalI7bookingEcvbB8ue170006Ev, symObjAddr: 0x9B58, symBinAddr: 0x10000CF6C, symSize: 0x28 }
  - { offsetInCU: 0x1A22E, offset: 0x1A22E, size: 0x8, addend: 0x0, symName: __ZNSt3__18optionalI7bookingEptB8ue170006Ev, symObjAddr: 0x9B80, symBinAddr: 0x10000CF94, symSize: 0x24 }
  - { offsetInCU: 0x1A254, offset: 0x1A254, size: 0x8, addend: 0x0, symName: __ZNK7booking13getRoomNumberEv, symObjAddr: 0x9BA4, symBinAddr: 0x10000CFB8, symSize: 0x18 }
  - { offsetInCU: 0x1A27A, offset: 0x1A27A, size: 0x8, addend: 0x0, symName: __ZNK5Hotel8findRoomEi, symObjAddr: 0x9BBC, symBinAddr: 0x10000CFD0, symSize: 0xD4 }
  - { offsetInCU: 0x1A2FF, offset: 0x1A2FF, size: 0x8, addend: 0x0, symName: __ZNSt3__18optionalI4roomEptB8ue170006Ev, symObjAddr: 0x9C90, symBinAddr: 0x10000D0A4, symSize: 0x24 }
  - { offsetInCU: 0x1A325, offset: 0x1A325, size: 0x8, addend: 0x0, symName: __ZNK5Hotel12findCustomerEi, symObjAddr: 0x9CB4, symBinAddr: 0x10000D0C8, symSize: 0xD8 }
  - { offsetInCU: 0x1A3AA, offset: 0x1A3AA, size: 0x8, addend: 0x0, symName: __ZNK7booking13getCustomerIDEv, symObjAddr: 0x9D8C, symBinAddr: 0x10000D1A0, symSize: 0x18 }
  - { offsetInCU: 0x1A3D0, offset: 0x1A3D0, size: 0x8, addend: 0x0, symName: __ZNKSt3__18optionalI8customerEcvbB8ue170006Ev, symObjAddr: 0x9DA4, symBinAddr: 0x10000D1B8, symSize: 0x28 }
  - { offsetInCU: 0x1A3F6, offset: 0x1A3F6, size: 0x8, addend: 0x0, symName: __ZNSt3__18optionalI8customerED1Ev, symObjAddr: 0x9DCC, symBinAddr: 0x10000D1E0, symSize: 0x2C }
  - { offsetInCU: 0x1A423, offset: 0x1A423, size: 0x8, addend: 0x0, symName: __ZNSt3__18optionalI4roomED1Ev, symObjAddr: 0x9DF8, symBinAddr: 0x10000D20C, symSize: 0x2C }
  - { offsetInCU: 0x1A450, offset: 0x1A450, size: 0x8, addend: 0x0, symName: __ZNSt3__18optionalI7bookingED1Ev, symObjAddr: 0x9E24, symBinAddr: 0x10000D238, symSize: 0x2C }
  - { offsetInCU: 0x1A47D, offset: 0x1A47D, size: 0x8, addend: 0x0, symName: __ZNKSt3__16vectorI7bookingNS_9allocatorIS1_EEE5beginB8ue170006Ev, symObjAddr: 0x9E50, symBinAddr: 0x10000D264, symSize: 0x30 }
  - { offsetInCU: 0x1A4A5, offset: 0x1A4A5, size: 0x8, addend: 0x0, symName: __ZNKSt3__16vectorI7bookingNS_9allocatorIS1_EEE3endB8ue170006Ev, symObjAddr: 0x9E80, symBinAddr: 0x10000D294, symSize: 0x30 }
  - { offsetInCU: 0x1A4CD, offset: 0x1A4CD, size: 0x8, addend: 0x0, symName: __ZNKSt3__111__wrap_iterIPK7bookingEdeB8ue170006Ev, symObjAddr: 0x9EE4, symBinAddr: 0x10000D2F8, symSize: 0x18 }
  - { offsetInCU: 0x1A4F3, offset: 0x1A4F3, size: 0x8, addend: 0x0, symName: __ZNK7booking12getBookingIDEv, symObjAddr: 0x9EFC, symBinAddr: 0x10000D310, symSize: 0x18 }
  - { offsetInCU: 0x1A519, offset: 0x1A519, size: 0x8, addend: 0x0, symName: __ZNSt3__18optionalI7bookingEC1B8ue170006IRKS1_Li0EEEOT_, symObjAddr: 0x9F14, symBinAddr: 0x10000D328, symSize: 0x34 }
  - { offsetInCU: 0x1A561, offset: 0x1A561, size: 0x8, addend: 0x0, symName: __ZNSt3__111__wrap_iterIPK7bookingEppB8ue170006Ev, symObjAddr: 0x9F48, symBinAddr: 0x10000D35C, symSize: 0x20 }
  - { offsetInCU: 0x1A587, offset: 0x1A587, size: 0x8, addend: 0x0, symName: __ZNSt3__18optionalI7bookingEC1B8ue170006ENS_9nullopt_tE, symObjAddr: 0x9F68, symBinAddr: 0x10000D37C, symSize: 0x2C }
  - { offsetInCU: 0x1A5BC, offset: 0x1A5BC, size: 0x8, addend: 0x0, symName: __ZNKSt3__16vectorI7bookingNS_9allocatorIS1_EEE11__make_iterB8ue170006EPKS1_, symObjAddr: 0x9F94, symBinAddr: 0x10000D3A8, symSize: 0x30 }
  - { offsetInCU: 0x1A5F1, offset: 0x1A5F1, size: 0x8, addend: 0x0, symName: __ZNSt3__111__wrap_iterIPK7bookingEC1B8ue170006ES3_, symObjAddr: 0x9FC4, symBinAddr: 0x10000D3D8, symSize: 0x34 }
  - { offsetInCU: 0x1A629, offset: 0x1A629, size: 0x8, addend: 0x0, symName: __ZNSt3__111__wrap_iterIPK7bookingEC2B8ue170006ES3_, symObjAddr: 0x9FF8, symBinAddr: 0x10000D40C, symSize: 0x20 }
  - { offsetInCU: 0x1A661, offset: 0x1A661, size: 0x8, addend: 0x0, symName: __ZNKSt3__111__wrap_iterIPK7bookingE4baseB8ue170006Ev, symObjAddr: 0xA060, symBinAddr: 0x10000D474, symSize: 0x18 }
  - { offsetInCU: 0x1A687, offset: 0x1A687, size: 0x8, addend: 0x0, symName: __ZNSt3__18optionalI7bookingEC2B8ue170006IRKS1_Li0EEEOT_, symObjAddr: 0xA078, symBinAddr: 0x10000D48C, symSize: 0x34 }
  - { offsetInCU: 0x1A6CF, offset: 0x1A6CF, size: 0x8, addend: 0x0, symName: __ZNSt3__127__optional_move_assign_baseI7bookingLb0EECI2NS_24__optional_destruct_baseIS1_Lb0EEEIJRKS1_EEENS_10in_place_tEDpOT_, symObjAddr: 0xA0AC, symBinAddr: 0x10000D4C0, symSize: 0x34 }
  - { offsetInCU: 0x1A70E, offset: 0x1A70E, size: 0x8, addend: 0x0, symName: __ZNSt3__127__optional_copy_assign_baseI7bookingLb0EECI2NS_24__optional_destruct_baseIS1_Lb0EEEIJRKS1_EEENS_10in_place_tEDpOT_, symObjAddr: 0xA0E0, symBinAddr: 0x10000D4F4, symSize: 0x34 }
  - { offsetInCU: 0x1A74D, offset: 0x1A74D, size: 0x8, addend: 0x0, symName: __ZNSt3__120__optional_move_baseI7bookingLb0EECI2NS_24__optional_destruct_baseIS1_Lb0EEEIJRKS1_EEENS_10in_place_tEDpOT_, symObjAddr: 0xA114, symBinAddr: 0x10000D528, symSize: 0x34 }
  - { offsetInCU: 0x1A78C, offset: 0x1A78C, size: 0x8, addend: 0x0, symName: __ZNSt3__120__optional_copy_baseI7bookingLb0EECI2NS_24__optional_destruct_baseIS1_Lb0EEEIJRKS1_EEENS_10in_place_tEDpOT_, symObjAddr: 0xA148, symBinAddr: 0x10000D55C, symSize: 0x34 }
  - { offsetInCU: 0x1A7CB, offset: 0x1A7CB, size: 0x8, addend: 0x0, symName: __ZNSt3__123__optional_storage_baseI7bookingLb0EECI2NS_24__optional_destruct_baseIS1_Lb0EEEIJRKS1_EEENS_10in_place_tEDpOT_, symObjAddr: 0xA17C, symBinAddr: 0x10000D590, symSize: 0x34 }
  - { offsetInCU: 0x1A80A, offset: 0x1A80A, size: 0x8, addend: 0x0, symName: __ZNSt3__124__optional_destruct_baseI7bookingLb0EEC2B8ue170006IJRKS1_EEENS_10in_place_tEDpOT_, symObjAddr: 0xA1B0, symBinAddr: 0x10000D5C4, symSize: 0x3C }
  - { offsetInCU: 0x1A859, offset: 0x1A859, size: 0x8, addend: 0x0, symName: __ZNSt3__18optionalI7bookingEC2B8ue170006ENS_9nullopt_tE, symObjAddr: 0xA1EC, symBinAddr: 0x10000D600, symSize: 0x2C }
  - { offsetInCU: 0x1A88E, offset: 0x1A88E, size: 0x8, addend: 0x0, symName: __ZNSt3__127__optional_move_assign_baseI7bookingLb0EEC2B8ue170006Ev, symObjAddr: 0xA218, symBinAddr: 0x10000D62C, symSize: 0x2C }
  - { offsetInCU: 0x1A8B8, offset: 0x1A8B8, size: 0x8, addend: 0x0, symName: __ZNSt3__127__optional_copy_assign_baseI7bookingLb0EEC2B8ue170006Ev, symObjAddr: 0xA244, symBinAddr: 0x10000D658, symSize: 0x2C }
  - { offsetInCU: 0x1A8E2, offset: 0x1A8E2, size: 0x8, addend: 0x0, symName: __ZNSt3__120__optional_move_baseI7bookingLb0EEC2B8ue170006Ev, symObjAddr: 0xA270, symBinAddr: 0x10000D684, symSize: 0x2C }
  - { offsetInCU: 0x1A90C, offset: 0x1A90C, size: 0x8, addend: 0x0, symName: __ZNSt3__120__optional_copy_baseI7bookingLb0EEC2B8ue170006Ev, symObjAddr: 0xA29C, symBinAddr: 0x10000D6B0, symSize: 0x2C }
  - { offsetInCU: 0x1A936, offset: 0x1A936, size: 0x8, addend: 0x0, symName: __ZNSt3__123__optional_storage_baseI7bookingLb0EEC2Ev, symObjAddr: 0xA2C8, symBinAddr: 0x10000D6DC, symSize: 0x2C }
  - { offsetInCU: 0x1A963, offset: 0x1A963, size: 0x8, addend: 0x0, symName: __ZNSt3__124__optional_destruct_baseI7bookingLb0EEC2B8ue170006Ev, symObjAddr: 0xA2F4, symBinAddr: 0x10000D708, symSize: 0x1C }
  - { offsetInCU: 0x1A98D, offset: 0x1A98D, size: 0x8, addend: 0x0, symName: __ZNKSt3__123__optional_storage_baseI7bookingLb0EE9has_valueB8ue170006Ev, symObjAddr: 0xA310, symBinAddr: 0x10000D724, symSize: 0x1C }
  - { offsetInCU: 0x1A9B3, offset: 0x1A9B3, size: 0x8, addend: 0x0, symName: __ZNRSt3__123__optional_storage_baseI7bookingLb0EE5__getB8ue170006Ev, symObjAddr: 0xA32C, symBinAddr: 0x10000D740, symSize: 0x14 }
  - { offsetInCU: 0x1A9D9, offset: 0x1A9D9, size: 0x8, addend: 0x0, symName: __ZNKSt3__16vectorI4roomNS_9allocatorIS1_EEE5beginB8ue170006Ev, symObjAddr: 0xA340, symBinAddr: 0x10000D754, symSize: 0x30 }
  - { offsetInCU: 0x1AA01, offset: 0x1AA01, size: 0x8, addend: 0x0, symName: __ZNKSt3__16vectorI4roomNS_9allocatorIS1_EEE3endB8ue170006Ev, symObjAddr: 0xA370, symBinAddr: 0x10000D784, symSize: 0x30 }
  - { offsetInCU: 0x1AA29, offset: 0x1AA29, size: 0x8, addend: 0x0, symName: __ZNKSt3__111__wrap_iterIPK4roomEdeB8ue170006Ev, symObjAddr: 0xA3D4, symBinAddr: 0x10000D7E8, symSize: 0x18 }
  - { offsetInCU: 0x1AA4F, offset: 0x1AA4F, size: 0x8, addend: 0x0, symName: __ZNSt3__18optionalI4roomEC1B8ue170006IRKS1_Li0EEEOT_, symObjAddr: 0xA3EC, symBinAddr: 0x10000D800, symSize: 0x34 }
  - { offsetInCU: 0x1AA97, offset: 0x1AA97, size: 0x8, addend: 0x0, symName: __ZNSt3__111__wrap_iterIPK4roomEppB8ue170006Ev, symObjAddr: 0xA420, symBinAddr: 0x10000D834, symSize: 0x20 }
  - { offsetInCU: 0x1AABD, offset: 0x1AABD, size: 0x8, addend: 0x0, symName: __ZNSt3__18optionalI4roomEC1B8ue170006ENS_9nullopt_tE, symObjAddr: 0xA440, symBinAddr: 0x10000D854, symSize: 0x2C }
  - { offsetInCU: 0x1AAF2, offset: 0x1AAF2, size: 0x8, addend: 0x0, symName: __ZNKSt3__16vectorI4roomNS_9allocatorIS1_EEE11__make_iterB8ue170006EPKS1_, symObjAddr: 0xA46C, symBinAddr: 0x10000D880, symSize: 0x30 }
  - { offsetInCU: 0x1AB27, offset: 0x1AB27, size: 0x8, addend: 0x0, symName: __ZNSt3__111__wrap_iterIPK4roomEC1B8ue170006ES3_, symObjAddr: 0xA49C, symBinAddr: 0x10000D8B0, symSize: 0x34 }
  - { offsetInCU: 0x1AB5F, offset: 0x1AB5F, size: 0x8, addend: 0x0, symName: __ZNSt3__111__wrap_iterIPK4roomEC2B8ue170006ES3_, symObjAddr: 0xA4D0, symBinAddr: 0x10000D8E4, symSize: 0x20 }
  - { offsetInCU: 0x1AB97, offset: 0x1AB97, size: 0x8, addend: 0x0, symName: __ZNKSt3__111__wrap_iterIPK4roomE4baseB8ue170006Ev, symObjAddr: 0xA538, symBinAddr: 0x10000D94C, symSize: 0x18 }
  - { offsetInCU: 0x1ABBD, offset: 0x1ABBD, size: 0x8, addend: 0x0, symName: __ZNSt3__18optionalI4roomEC2B8ue170006IRKS1_Li0EEEOT_, symObjAddr: 0xA550, symBinAddr: 0x10000D964, symSize: 0x34 }
  - { offsetInCU: 0x1AC05, offset: 0x1AC05, size: 0x8, addend: 0x0, symName: __ZNSt3__127__optional_move_assign_baseI4roomLb0EECI2NS_24__optional_destruct_baseIS1_Lb0EEEIJRKS1_EEENS_10in_place_tEDpOT_, symObjAddr: 0xA584, symBinAddr: 0x10000D998, symSize: 0x34 }
  - { offsetInCU: 0x1AC44, offset: 0x1AC44, size: 0x8, addend: 0x0, symName: __ZNSt3__127__optional_copy_assign_baseI4roomLb0EECI2NS_24__optional_destruct_baseIS1_Lb0EEEIJRKS1_EEENS_10in_place_tEDpOT_, symObjAddr: 0xA5B8, symBinAddr: 0x10000D9CC, symSize: 0x34 }
  - { offsetInCU: 0x1AC83, offset: 0x1AC83, size: 0x8, addend: 0x0, symName: __ZNSt3__120__optional_move_baseI4roomLb0EECI2NS_24__optional_destruct_baseIS1_Lb0EEEIJRKS1_EEENS_10in_place_tEDpOT_, symObjAddr: 0xA5EC, symBinAddr: 0x10000DA00, symSize: 0x34 }
  - { offsetInCU: 0x1ACC2, offset: 0x1ACC2, size: 0x8, addend: 0x0, symName: __ZNSt3__120__optional_copy_baseI4roomLb0EECI2NS_24__optional_destruct_baseIS1_Lb0EEEIJRKS1_EEENS_10in_place_tEDpOT_, symObjAddr: 0xA620, symBinAddr: 0x10000DA34, symSize: 0x34 }
  - { offsetInCU: 0x1AD01, offset: 0x1AD01, size: 0x8, addend: 0x0, symName: __ZNSt3__123__optional_storage_baseI4roomLb0EECI2NS_24__optional_destruct_baseIS1_Lb0EEEIJRKS1_EEENS_10in_place_tEDpOT_, symObjAddr: 0xA654, symBinAddr: 0x10000DA68, symSize: 0x34 }
  - { offsetInCU: 0x1AD40, offset: 0x1AD40, size: 0x8, addend: 0x0, symName: __ZNSt3__124__optional_destruct_baseI4roomLb0EEC2B8ue170006IJRKS1_EEENS_10in_place_tEDpOT_, symObjAddr: 0xA688, symBinAddr: 0x10000DA9C, symSize: 0x3C }
  - { offsetInCU: 0x1AD8F, offset: 0x1AD8F, size: 0x8, addend: 0x0, symName: __ZNSt3__18optionalI4roomEC2B8ue170006ENS_9nullopt_tE, symObjAddr: 0xA6C4, symBinAddr: 0x10000DAD8, symSize: 0x2C }
  - { offsetInCU: 0x1ADC4, offset: 0x1ADC4, size: 0x8, addend: 0x0, symName: __ZNSt3__127__optional_move_assign_baseI4roomLb0EEC2B8ue170006Ev, symObjAddr: 0xA6F0, symBinAddr: 0x10000DB04, symSize: 0x2C }
  - { offsetInCU: 0x1ADEE, offset: 0x1ADEE, size: 0x8, addend: 0x0, symName: __ZNSt3__127__optional_copy_assign_baseI4roomLb0EEC2B8ue170006Ev, symObjAddr: 0xA71C, symBinAddr: 0x10000DB30, symSize: 0x2C }
  - { offsetInCU: 0x1AE18, offset: 0x1AE18, size: 0x8, addend: 0x0, symName: __ZNSt3__120__optional_move_baseI4roomLb0EEC2B8ue170006Ev, symObjAddr: 0xA748, symBinAddr: 0x10000DB5C, symSize: 0x2C }
  - { offsetInCU: 0x1AE42, offset: 0x1AE42, size: 0x8, addend: 0x0, symName: __ZNSt3__120__optional_copy_baseI4roomLb0EEC2B8ue170006Ev, symObjAddr: 0xA774, symBinAddr: 0x10000DB88, symSize: 0x2C }
  - { offsetInCU: 0x1AE6C, offset: 0x1AE6C, size: 0x8, addend: 0x0, symName: __ZNSt3__123__optional_storage_baseI4roomLb0EEC2Ev, symObjAddr: 0xA7A0, symBinAddr: 0x10000DBB4, symSize: 0x2C }
  - { offsetInCU: 0x1AE99, offset: 0x1AE99, size: 0x8, addend: 0x0, symName: __ZNSt3__124__optional_destruct_baseI4roomLb0EEC2B8ue170006Ev, symObjAddr: 0xA7CC, symBinAddr: 0x10000DBE0, symSize: 0x1C }
  - { offsetInCU: 0x1AEC3, offset: 0x1AEC3, size: 0x8, addend: 0x0, symName: __ZNRSt3__123__optional_storage_baseI4roomLb0EE5__getB8ue170006Ev, symObjAddr: 0xA7E8, symBinAddr: 0x10000DBFC, symSize: 0x14 }
  - { offsetInCU: 0x1AEE9, offset: 0x1AEE9, size: 0x8, addend: 0x0, symName: __ZNKSt3__16vectorI8customerNS_9allocatorIS1_EEE5beginB8ue170006Ev, symObjAddr: 0xA7FC, symBinAddr: 0x10000DC10, symSize: 0x30 }
  - { offsetInCU: 0x1AF11, offset: 0x1AF11, size: 0x8, addend: 0x0, symName: __ZNKSt3__16vectorI8customerNS_9allocatorIS1_EEE3endB8ue170006Ev, symObjAddr: 0xA82C, symBinAddr: 0x10000DC40, symSize: 0x30 }
  - { offsetInCU: 0x1AF39, offset: 0x1AF39, size: 0x8, addend: 0x0, symName: __ZNKSt3__111__wrap_iterIPK8customerEdeB8ue170006Ev, symObjAddr: 0xA890, symBinAddr: 0x10000DCA4, symSize: 0x18 }
  - { offsetInCU: 0x1AF5F, offset: 0x1AF5F, size: 0x8, addend: 0x0, symName: __ZNSt3__18optionalI8customerEC1B8ue170006IRKS1_Li0EEEOT_, symObjAddr: 0xA8A8, symBinAddr: 0x10000DCBC, symSize: 0x34 }
  - { offsetInCU: 0x1AFA7, offset: 0x1AFA7, size: 0x8, addend: 0x0, symName: __ZNSt3__111__wrap_iterIPK8customerEppB8ue170006Ev, symObjAddr: 0xA8DC, symBinAddr: 0x10000DCF0, symSize: 0x20 }
  - { offsetInCU: 0x1AFCD, offset: 0x1AFCD, size: 0x8, addend: 0x0, symName: __ZNSt3__18optionalI8customerEC1B8ue170006ENS_9nullopt_tE, symObjAddr: 0xA8FC, symBinAddr: 0x10000DD10, symSize: 0x2C }
  - { offsetInCU: 0x1B002, offset: 0x1B002, size: 0x8, addend: 0x0, symName: __ZNKSt3__16vectorI8customerNS_9allocatorIS1_EEE11__make_iterB8ue170006EPKS1_, symObjAddr: 0xA928, symBinAddr: 0x10000DD3C, symSize: 0x30 }
  - { offsetInCU: 0x1B037, offset: 0x1B037, size: 0x8, addend: 0x0, symName: __ZNSt3__111__wrap_iterIPK8customerEC1B8ue170006ES3_, symObjAddr: 0xA958, symBinAddr: 0x10000DD6C, symSize: 0x34 }
  - { offsetInCU: 0x1B06F, offset: 0x1B06F, size: 0x8, addend: 0x0, symName: __ZNSt3__111__wrap_iterIPK8customerEC2B8ue170006ES3_, symObjAddr: 0xA98C, symBinAddr: 0x10000DDA0, symSize: 0x20 }
  - { offsetInCU: 0x1B0A7, offset: 0x1B0A7, size: 0x8, addend: 0x0, symName: __ZNKSt3__111__wrap_iterIPK8customerE4baseB8ue170006Ev, symObjAddr: 0xA9F4, symBinAddr: 0x10000DE08, symSize: 0x18 }
  - { offsetInCU: 0x1B0CD, offset: 0x1B0CD, size: 0x8, addend: 0x0, symName: __ZNSt3__18optionalI8customerEC2B8ue170006IRKS1_Li0EEEOT_, symObjAddr: 0xAA0C, symBinAddr: 0x10000DE20, symSize: 0x34 }
  - { offsetInCU: 0x1B115, offset: 0x1B115, size: 0x8, addend: 0x0, symName: __ZNSt3__127__optional_move_assign_baseI8customerLb0EECI2NS_24__optional_destruct_baseIS1_Lb0EEEIJRKS1_EEENS_10in_place_tEDpOT_, symObjAddr: 0xAA40, symBinAddr: 0x10000DE54, symSize: 0x34 }
  - { offsetInCU: 0x1B154, offset: 0x1B154, size: 0x8, addend: 0x0, symName: __ZNSt3__127__optional_copy_assign_baseI8customerLb0EECI2NS_24__optional_destruct_baseIS1_Lb0EEEIJRKS1_EEENS_10in_place_tEDpOT_, symObjAddr: 0xAA74, symBinAddr: 0x10000DE88, symSize: 0x34 }
  - { offsetInCU: 0x1B193, offset: 0x1B193, size: 0x8, addend: 0x0, symName: __ZNSt3__120__optional_move_baseI8customerLb0EECI2NS_24__optional_destruct_baseIS1_Lb0EEEIJRKS1_EEENS_10in_place_tEDpOT_, symObjAddr: 0xAAA8, symBinAddr: 0x10000DEBC, symSize: 0x34 }
  - { offsetInCU: 0x1B1D2, offset: 0x1B1D2, size: 0x8, addend: 0x0, symName: __ZNSt3__120__optional_copy_baseI8customerLb0EECI2NS_24__optional_destruct_baseIS1_Lb0EEEIJRKS1_EEENS_10in_place_tEDpOT_, symObjAddr: 0xAADC, symBinAddr: 0x10000DEF0, symSize: 0x34 }
  - { offsetInCU: 0x1B211, offset: 0x1B211, size: 0x8, addend: 0x0, symName: __ZNSt3__123__optional_storage_baseI8customerLb0EECI2NS_24__optional_destruct_baseIS1_Lb0EEEIJRKS1_EEENS_10in_place_tEDpOT_, symObjAddr: 0xAB10, symBinAddr: 0x10000DF24, symSize: 0x34 }
  - { offsetInCU: 0x1B250, offset: 0x1B250, size: 0x8, addend: 0x0, symName: __ZNSt3__124__optional_destruct_baseI8customerLb0EEC2B8ue170006IJRKS1_EEENS_10in_place_tEDpOT_, symObjAddr: 0xAB44, symBinAddr: 0x10000DF58, symSize: 0x3C }
  - { offsetInCU: 0x1B29F, offset: 0x1B29F, size: 0x8, addend: 0x0, symName: __ZNSt3__18optionalI8customerEC2B8ue170006ENS_9nullopt_tE, symObjAddr: 0xAB80, symBinAddr: 0x10000DF94, symSize: 0x2C }
  - { offsetInCU: 0x1B2D4, offset: 0x1B2D4, size: 0x8, addend: 0x0, symName: __ZNSt3__127__optional_move_assign_baseI8customerLb0EEC2B8ue170006Ev, symObjAddr: 0xABAC, symBinAddr: 0x10000DFC0, symSize: 0x2C }
  - { offsetInCU: 0x1B2FE, offset: 0x1B2FE, size: 0x8, addend: 0x0, symName: __ZNSt3__127__optional_copy_assign_baseI8customerLb0EEC2B8ue170006Ev, symObjAddr: 0xABD8, symBinAddr: 0x10000DFEC, symSize: 0x2C }
  - { offsetInCU: 0x1B328, offset: 0x1B328, size: 0x8, addend: 0x0, symName: __ZNSt3__120__optional_move_baseI8customerLb0EEC2B8ue170006Ev, symObjAddr: 0xAC04, symBinAddr: 0x10000E018, symSize: 0x2C }
  - { offsetInCU: 0x1B352, offset: 0x1B352, size: 0x8, addend: 0x0, symName: __ZNSt3__120__optional_copy_baseI8customerLb0EEC2B8ue170006Ev, symObjAddr: 0xAC30, symBinAddr: 0x10000E044, symSize: 0x2C }
  - { offsetInCU: 0x1B37C, offset: 0x1B37C, size: 0x8, addend: 0x0, symName: __ZNSt3__123__optional_storage_baseI8customerLb0EEC2Ev, symObjAddr: 0xAC5C, symBinAddr: 0x10000E070, symSize: 0x2C }
  - { offsetInCU: 0x1B3A9, offset: 0x1B3A9, size: 0x8, addend: 0x0, symName: __ZNSt3__124__optional_destruct_baseI8customerLb0EEC2B8ue170006Ev, symObjAddr: 0xAC88, symBinAddr: 0x10000E09C, symSize: 0x1C }
  - { offsetInCU: 0x1B3D3, offset: 0x1B3D3, size: 0x8, addend: 0x0, symName: __ZNKSt3__123__optional_storage_baseI8customerLb0EE9has_valueB8ue170006Ev, symObjAddr: 0xACA4, symBinAddr: 0x10000E0B8, symSize: 0x1C }
  - { offsetInCU: 0x1B3F9, offset: 0x1B3F9, size: 0x8, addend: 0x0, symName: __ZNSt3__18optionalI8customerED2Ev, symObjAddr: 0xACC0, symBinAddr: 0x10000E0D4, symSize: 0x2C }
  - { offsetInCU: 0x1B426, offset: 0x1B426, size: 0x8, addend: 0x0, symName: __ZNSt3__127__optional_move_assign_baseI8customerLb0EED2Ev, symObjAddr: 0xACEC, symBinAddr: 0x10000E100, symSize: 0x2C }
  - { offsetInCU: 0x1B453, offset: 0x1B453, size: 0x8, addend: 0x0, symName: __ZNSt3__127__optional_copy_assign_baseI8customerLb0EED2Ev, symObjAddr: 0xAD18, symBinAddr: 0x10000E12C, symSize: 0x2C }
  - { offsetInCU: 0x1B480, offset: 0x1B480, size: 0x8, addend: 0x0, symName: __ZNSt3__120__optional_move_baseI8customerLb0EED2Ev, symObjAddr: 0xAD44, symBinAddr: 0x10000E158, symSize: 0x2C }
  - { offsetInCU: 0x1B4AD, offset: 0x1B4AD, size: 0x8, addend: 0x0, symName: __ZNSt3__120__optional_copy_baseI8customerLb0EED2Ev, symObjAddr: 0xAD70, symBinAddr: 0x10000E184, symSize: 0x2C }
  - { offsetInCU: 0x1B4DA, offset: 0x1B4DA, size: 0x8, addend: 0x0, symName: __ZNSt3__123__optional_storage_baseI8customerLb0EED2Ev, symObjAddr: 0xAD9C, symBinAddr: 0x10000E1B0, symSize: 0x2C }
  - { offsetInCU: 0x1B507, offset: 0x1B507, size: 0x8, addend: 0x0, symName: __ZNSt3__124__optional_destruct_baseI8customerLb0EED2B8ue170006Ev, symObjAddr: 0xADC8, symBinAddr: 0x10000E1DC, symSize: 0x48 }
  - { offsetInCU: 0x1B531, offset: 0x1B531, size: 0x8, addend: 0x0, symName: __ZNSt3__18optionalI4roomED2Ev, symObjAddr: 0xAE10, symBinAddr: 0x10000E224, symSize: 0x2C }
  - { offsetInCU: 0x1B55E, offset: 0x1B55E, size: 0x8, addend: 0x0, symName: __ZNSt3__127__optional_move_assign_baseI4roomLb0EED2Ev, symObjAddr: 0xAE3C, symBinAddr: 0x10000E250, symSize: 0x2C }
  - { offsetInCU: 0x1B58B, offset: 0x1B58B, size: 0x8, addend: 0x0, symName: __ZNSt3__127__optional_copy_assign_baseI4roomLb0EED2Ev, symObjAddr: 0xAE68, symBinAddr: 0x10000E27C, symSize: 0x2C }
  - { offsetInCU: 0x1B5B8, offset: 0x1B5B8, size: 0x8, addend: 0x0, symName: __ZNSt3__120__optional_move_baseI4roomLb0EED2Ev, symObjAddr: 0xAE94, symBinAddr: 0x10000E2A8, symSize: 0x2C }
  - { offsetInCU: 0x1B5E5, offset: 0x1B5E5, size: 0x8, addend: 0x0, symName: __ZNSt3__120__optional_copy_baseI4roomLb0EED2Ev, symObjAddr: 0xAEC0, symBinAddr: 0x10000E2D4, symSize: 0x2C }
  - { offsetInCU: 0x1B612, offset: 0x1B612, size: 0x8, addend: 0x0, symName: __ZNSt3__123__optional_storage_baseI4roomLb0EED2Ev, symObjAddr: 0xAEEC, symBinAddr: 0x10000E300, symSize: 0x2C }
  - { offsetInCU: 0x1B63F, offset: 0x1B63F, size: 0x8, addend: 0x0, symName: __ZNSt3__124__optional_destruct_baseI4roomLb0EED2B8ue170006Ev, symObjAddr: 0xAF18, symBinAddr: 0x10000E32C, symSize: 0x48 }
  - { offsetInCU: 0x1B669, offset: 0x1B669, size: 0x8, addend: 0x0, symName: __ZNSt3__18optionalI7bookingED2Ev, symObjAddr: 0xAF60, symBinAddr: 0x10000E374, symSize: 0x2C }
  - { offsetInCU: 0x1B696, offset: 0x1B696, size: 0x8, addend: 0x0, symName: __ZNSt3__127__optional_move_assign_baseI7bookingLb0EED2Ev, symObjAddr: 0xAF8C, symBinAddr: 0x10000E3A0, symSize: 0x2C }
  - { offsetInCU: 0x1B6C3, offset: 0x1B6C3, size: 0x8, addend: 0x0, symName: __ZNSt3__127__optional_copy_assign_baseI7bookingLb0EED2Ev, symObjAddr: 0xAFB8, symBinAddr: 0x10000E3CC, symSize: 0x2C }
  - { offsetInCU: 0x1B6F0, offset: 0x1B6F0, size: 0x8, addend: 0x0, symName: __ZNSt3__120__optional_move_baseI7bookingLb0EED2Ev, symObjAddr: 0xAFE4, symBinAddr: 0x10000E3F8, symSize: 0x2C }
  - { offsetInCU: 0x1B71D, offset: 0x1B71D, size: 0x8, addend: 0x0, symName: __ZNSt3__120__optional_copy_baseI7bookingLb0EED2Ev, symObjAddr: 0xB010, symBinAddr: 0x10000E424, symSize: 0x2C }
  - { offsetInCU: 0x1B74A, offset: 0x1B74A, size: 0x8, addend: 0x0, symName: __ZNSt3__123__optional_storage_baseI7bookingLb0EED2Ev, symObjAddr: 0xB03C, symBinAddr: 0x10000E450, symSize: 0x2C }
  - { offsetInCU: 0x1B777, offset: 0x1B777, size: 0x8, addend: 0x0, symName: __ZNSt3__124__optional_destruct_baseI7bookingLb0EED2B8ue170006Ev, symObjAddr: 0xB068, symBinAddr: 0x10000E47C, symSize: 0x48 }
  - { offsetInCU: 0x1B7A1, offset: 0x1B7A1, size: 0x8, addend: 0x0, symName: __ZN4room15markAsAvailableEv, symObjAddr: 0xB0B0, symBinAddr: 0x10000E4C4, symSize: 0x64 }
  - { offsetInCU: 0x1B7C7, offset: 0x1B7C7, size: 0x8, addend: 0x0, symName: __ZN5HotelD2Ev, symObjAddr: 0xB114, symBinAddr: 0x10000E528, symSize: 0x44 }
  - { offsetInCU: 0x1B7F3, offset: 0x1B7F3, size: 0x8, addend: 0x0, symName: __ZNSt3__16vectorI7bookingNS_9allocatorIS1_EEED1B8ue170006Ev, symObjAddr: 0xB158, symBinAddr: 0x10000E56C, symSize: 0x2C }
  - { offsetInCU: 0x1B81D, offset: 0x1B81D, size: 0x8, addend: 0x0, symName: __ZNSt3__16vectorI8customerNS_9allocatorIS1_EEED1B8ue170006Ev, symObjAddr: 0xB184, symBinAddr: 0x10000E598, symSize: 0x2C }
  - { offsetInCU: 0x1B847, offset: 0x1B847, size: 0x8, addend: 0x0, symName: __ZNSt3__16vectorI4roomNS_9allocatorIS1_EEED1B8ue170006Ev, symObjAddr: 0xB1B0, symBinAddr: 0x10000E5C4, symSize: 0x2C }
  - { offsetInCU: 0x1B871, offset: 0x1B871, size: 0x8, addend: 0x0, symName: __ZNSt3__16vectorI7bookingNS_9allocatorIS1_EEED2B8ue170006Ev, symObjAddr: 0xB1DC, symBinAddr: 0x10000E5F0, symSize: 0x44 }
  - { offsetInCU: 0x1B89B, offset: 0x1B89B, size: 0x8, addend: 0x0, symName: __ZNSt3__16vectorI7bookingNS_9allocatorIS1_EEE16__destroy_vectorC1B8ue170006ERS4_, symObjAddr: 0xB220, symBinAddr: 0x10000E634, symSize: 0x34 }
  - { offsetInCU: 0x1B8D4, offset: 0x1B8D4, size: 0x8, addend: 0x0, symName: __ZNSt3__16vectorI7bookingNS_9allocatorIS1_EEE16__destroy_vectorclB8ue170006Ev, symObjAddr: 0xB254, symBinAddr: 0x10000E668, symSize: 0x90 }
  - { offsetInCU: 0x1B8FA, offset: 0x1B8FA, size: 0x8, addend: 0x0, symName: __ZNSt3__16vectorI7bookingNS_9allocatorIS1_EEE16__destroy_vectorC2B8ue170006ERS4_, symObjAddr: 0xB2E4, symBinAddr: 0x10000E6F8, symSize: 0x20 }
  - { offsetInCU: 0x1B933, offset: 0x1B933, size: 0x8, addend: 0x0, symName: __ZNSt3__16vectorI7bookingNS_9allocatorIS1_EEE7__clearB8ue170006Ev, symObjAddr: 0xB304, symBinAddr: 0x10000E718, symSize: 0x28 }
  - { offsetInCU: 0x1B959, offset: 0x1B959, size: 0x8, addend: 0x0, symName: __ZNSt3__16vectorI7bookingNS_9allocatorIS1_EEE22__base_destruct_at_endB8ue170006EPS1_, symObjAddr: 0xB32C, symBinAddr: 0x10000E740, symSize: 0x8C }
  - { offsetInCU: 0x1B99D, offset: 0x1B99D, size: 0x8, addend: 0x0, symName: __ZNSt3__16vectorI8customerNS_9allocatorIS1_EEED2B8ue170006Ev, symObjAddr: 0xB3B8, symBinAddr: 0x10000E7CC, symSize: 0x44 }
  - { offsetInCU: 0x1B9C7, offset: 0x1B9C7, size: 0x8, addend: 0x0, symName: __ZNSt3__16vectorI8customerNS_9allocatorIS1_EEE16__destroy_vectorC1B8ue170006ERS4_, symObjAddr: 0xB3FC, symBinAddr: 0x10000E810, symSize: 0x34 }
  - { offsetInCU: 0x1BA00, offset: 0x1BA00, size: 0x8, addend: 0x0, symName: __ZNSt3__16vectorI8customerNS_9allocatorIS1_EEE16__destroy_vectorclB8ue170006Ev, symObjAddr: 0xB430, symBinAddr: 0x10000E844, symSize: 0x90 }
  - { offsetInCU: 0x1BA26, offset: 0x1BA26, size: 0x8, addend: 0x0, symName: __ZNSt3__16vectorI8customerNS_9allocatorIS1_EEE16__destroy_vectorC2B8ue170006ERS4_, symObjAddr: 0xB4C0, symBinAddr: 0x10000E8D4, symSize: 0x20 }
  - { offsetInCU: 0x1BA5F, offset: 0x1BA5F, size: 0x8, addend: 0x0, symName: __ZNSt3__16vectorI8customerNS_9allocatorIS1_EEE7__clearB8ue170006Ev, symObjAddr: 0xB4E0, symBinAddr: 0x10000E8F4, symSize: 0x28 }
  - { offsetInCU: 0x1BA85, offset: 0x1BA85, size: 0x8, addend: 0x0, symName: __ZNSt3__16vectorI8customerNS_9allocatorIS1_EEE22__base_destruct_at_endB8ue170006EPS1_, symObjAddr: 0xB508, symBinAddr: 0x10000E91C, symSize: 0x8C }
  - { offsetInCU: 0x1BAC9, offset: 0x1BAC9, size: 0x8, addend: 0x0, symName: __ZNSt3__16vectorI4roomNS_9allocatorIS1_EEED2B8ue170006Ev, symObjAddr: 0xB594, symBinAddr: 0x10000E9A8, symSize: 0x44 }
  - { offsetInCU: 0x1BAF3, offset: 0x1BAF3, size: 0x8, addend: 0x0, symName: __ZNSt3__16vectorI4roomNS_9allocatorIS1_EEE16__destroy_vectorC1B8ue170006ERS4_, symObjAddr: 0xB5D8, symBinAddr: 0x10000E9EC, symSize: 0x34 }
  - { offsetInCU: 0x1BB2C, offset: 0x1BB2C, size: 0x8, addend: 0x0, symName: __ZNSt3__16vectorI4roomNS_9allocatorIS1_EEE16__destroy_vectorclB8ue170006Ev, symObjAddr: 0xB60C, symBinAddr: 0x10000EA20, symSize: 0x90 }
  - { offsetInCU: 0x1BB52, offset: 0x1BB52, size: 0x8, addend: 0x0, symName: __ZNSt3__16vectorI4roomNS_9allocatorIS1_EEE16__destroy_vectorC2B8ue170006ERS4_, symObjAddr: 0xB69C, symBinAddr: 0x10000EAB0, symSize: 0x20 }
  - { offsetInCU: 0x1BB8B, offset: 0x1BB8B, size: 0x8, addend: 0x0, symName: __ZNSt3__16vectorI4roomNS_9allocatorIS1_EEE7__clearB8ue170006Ev, symObjAddr: 0xB6BC, symBinAddr: 0x10000EAD0, symSize: 0x28 }
  - { offsetInCU: 0x1BBB1, offset: 0x1BBB1, size: 0x8, addend: 0x0, symName: __ZNSt3__16vectorI4roomNS_9allocatorIS1_EEE22__base_destruct_at_endB8ue170006EPS1_, symObjAddr: 0xB6E4, symBinAddr: 0x10000EAF8, symSize: 0x8C }
  - { offsetInCU: 0x1BBF5, offset: 0x1BBF5, size: 0x8, addend: 0x0, symName: __ZNSt3__112basic_stringIcNS_11char_traitsIcEENS_9allocatorIcEEEC2B8ue170006ILi0EEEPKc, symObjAddr: 0xB770, symBinAddr: 0x10000EB84, symSize: 0x58 }
...
